	.text
	.file	"phatq.f548ra6f-cgu.0"
	.section	".text._ZN36_$LT$T$u20$as$u20$core..any..Any$GT$7type_id17h25f43adb7cf8f652E","ax",@progbits
	.p2align	4, 0x90
	.type	_ZN36_$LT$T$u20$as$u20$core..any..Any$GT$7type_id17h25f43adb7cf8f652E,@function
_ZN36_$LT$T$u20$as$u20$core..any..Any$GT$7type_id17h25f43adb7cf8f652E:
	.cfi_startproc
	movabsq	$9147559743429524724, %rax
	retq
.Lfunc_end0:
	.size	_ZN36_$LT$T$u20$as$u20$core..any..Any$GT$7type_id17h25f43adb7cf8f652E, .Lfunc_end0-_ZN36_$LT$T$u20$as$u20$core..any..Any$GT$7type_id17h25f43adb7cf8f652E
	.cfi_endproc

	.section	.text._ZN3std10sys_common9backtrace26__rust_end_short_backtrace17h478561ad17ab74c2E,"ax",@progbits
	.p2align	4, 0x90
	.type	_ZN3std10sys_common9backtrace26__rust_end_short_backtrace17h478561ad17ab74c2E,@function
_ZN3std10sys_common9backtrace26__rust_end_short_backtrace17h478561ad17ab74c2E:
	.cfi_startproc
	subq	$24, %rsp
	.cfi_def_cfa_offset 32
	movq	16(%rdi), %rax
	movq	%rax, 16(%rsp)
	movups	(%rdi), %xmm0
	movaps	%xmm0, (%rsp)
	movq	%rsp, %rdi
	callq	_ZN3std9panicking11begin_panic28_$u7b$$u7b$closure$u7d$$u7d$17hc7ca81ebbae453e4E
	ud2
.Lfunc_end1:
	.size	_ZN3std10sys_common9backtrace26__rust_end_short_backtrace17h478561ad17ab74c2E, .Lfunc_end1-_ZN3std10sys_common9backtrace26__rust_end_short_backtrace17h478561ad17ab74c2E
	.cfi_endproc

	.section	.text._ZN3std10sys_common9backtrace28__rust_begin_short_backtrace17h71d897fbc9faf9b7E,"ax",@progbits
	.p2align	4, 0x90
	.type	_ZN3std10sys_common9backtrace28__rust_begin_short_backtrace17h71d897fbc9faf9b7E,@function
_ZN3std10sys_common9backtrace28__rust_begin_short_backtrace17h71d897fbc9faf9b7E:
	.cfi_startproc
	pushq	%rax
	.cfi_def_cfa_offset 16
	callq	*%rdi
	movq	%rsp, %rax
	#APP
	#NO_APP
	popq	%rax
	.cfi_def_cfa_offset 8
	retq
.Lfunc_end2:
	.size	_ZN3std10sys_common9backtrace28__rust_begin_short_backtrace17h71d897fbc9faf9b7E, .Lfunc_end2-_ZN3std10sys_common9backtrace28__rust_begin_short_backtrace17h71d897fbc9faf9b7E
	.cfi_endproc

	.section	.rodata.cst16,"aM",@progbits,16
	.p2align	4
.LCPI3_0:
	.quad	1
	.quad	1
	.section	.text._ZN3std10sys_common9backtrace28__rust_begin_short_backtrace17hca12820cf1d223c0E,"ax",@progbits
	.p2align	4, 0x90
	.type	_ZN3std10sys_common9backtrace28__rust_begin_short_backtrace17hca12820cf1d223c0E,@function
_ZN3std10sys_common9backtrace28__rust_begin_short_backtrace17hca12820cf1d223c0E:
.Lfunc_begin0:
	.cfi_startproc
	.cfi_personality 155, DW.ref.rust_eh_personality
	.cfi_lsda 27, .Lexception0
	pushq	%rbp
	.cfi_def_cfa_offset 16
	pushq	%r15
	.cfi_def_cfa_offset 24
	pushq	%r14
	.cfi_def_cfa_offset 32
	pushq	%r13
	.cfi_def_cfa_offset 40
	pushq	%r12
	.cfi_def_cfa_offset 48
	pushq	%rbx
	.cfi_def_cfa_offset 56
	subq	$136, %rsp
	.cfi_def_cfa_offset 192
	.cfi_offset %rbx, -56
	.cfi_offset %r12, -48
	.cfi_offset %r13, -40
	.cfi_offset %r14, -32
	.cfi_offset %r15, -24
	.cfi_offset %rbp, -16
	movabsq	$-6939452855193903323, %r11
	movdqu	(%rdi), %xmm0
	movdqa	%xmm0, 80(%rsp)
	movq	16(%rdi), %rax
	movq	%rax, 56(%rsp)
	movq	%rax, 96(%rsp)
	movq	88(%rsp), %r12
	xorl	%r10d, %r10d
	leaq	.L__unnamed_1(%rip), %rbp
	jmp	.LBB3_2
	.p2align	4, 0x90
.LBB3_1:
	addq	56(%rsp), %r12
.LBB3_2:
	movl	%r12d, %ecx
	bswapl	%ecx
	shlq	$32, %rcx
	xorq	%r12, %rcx
	movabsq	$-4090762196417718878, %rsi
	subq	%rcx, %rsi
	xorl	%r14d, %r14d
	leaq	.L__unnamed_2(%rip), %r15
.LBB3_3:
	movq	%r14, %rbx
	movzwl	(%r15), %ecx
	movzbl	2(%r15), %edi
	addq	$3, %r15
	shlq	$16, %rcx
	movzwl	%r10w, %r10d
	orq	%rcx, %r10
	addq	$256, %r14
	movq	%r10, %r13
	shlq	$32, %r13
	xorl	%ecx, %ecx
	.p2align	4, 0x90
.LBB3_4:
	movzwl	(%rcx,%rbp), %r8d
	movzbl	2(%rcx,%rbp), %r9d
	shll	$16, %r9d
	orl	%r8d, %r9d
	shll	$8, %r9d
	movzbl	%dil, %edi
	orl	%r9d, %edi
	movq	%r13, %rax
	orq	%rdi, %rax
	xorq	%rsi, %rax
	movq	%rax, %rdx
	rolq	$24, %rdx
	xorq	%rax, %rdx
	rolq	$49, %rax
	xorq	%rax, %rdx
	imulq	%r11, %rdx
	movq	%rdx, %rax
	shrq	$35, %rax
	addq	$8, %rax
	xorq	%rdx, %rax
	imulq	%r11, %rax
	movq	%rax, %rdx
	shrq	$28, %rdx
	xorq	%rax, %rdx
	cmpq	%rdx, %rbx
	jne	.LBB3_1
	addq	$1, %rbx
	addq	$3, %rcx
	cmpq	$768, %rcx
	jne	.LBB3_4
	leaq	.L__unnamed_2+768(%rip), %rax
	cmpq	%rax, %r15
	jne	.LBB3_3
	movq	80(%rsp), %r13
	leaq	24(%r13), %rbp
	leaq	40(%r13), %rax
	movq	%rax, 104(%rsp)
	pxor	%xmm0, %xmm0
	movdqa	%xmm0, 64(%rsp)
	leaq	64(%rsp), %r14
	movq	%rbp, 56(%rsp)
	jmp	.LBB3_10
	.p2align	4, 0x90
.LBB3_8:
	movq	%rbp, 64(%rsp)
	movq	$0, 72(%rsp)
	movq	48(%r13), %rax
	leaq	8(%rax), %rcx
	testq	%rax, %rax
	cmoveq	104(%rsp), %rcx
	movq	%r14, (%rcx)
	movq	%r14, 48(%r13)
	testb	%r15b, %r15b
	je	.LBB3_21
.LBB3_9:
	movq	56(%rsp), %rbx
	movq	(%rbx), %rdi
	callq	*pthread_mutex_unlock@GOTPCREL(%rip)
.Ltmp6:
	movq	%rbp, %rdi
	movq	%rbx, %rbp
	callq	_ZN3std4sync4mpsc8blocking9WaitToken4wait17h8e6761468719f6d0E
.Ltmp7:
.LBB3_10:
	movl	%r15d, %ebx
	movq	(%rbp), %rdi
	callq	*pthread_mutex_lock@GOTPCREL(%rip)
	movq	_ZN3std9panicking11panic_count18GLOBAL_PANIC_COUNT17h3b25e77861be4659E(%rip), %rax
	testq	%rax, %rax
	jne	.LBB3_24
	xorl	%r15d, %r15d
	movzbl	32(%r13), %eax
	testb	%al, %al
	jne	.LBB3_25
.LBB3_12:
	cmpb	$0, 128(%r13)
	jne	.LBB3_26
	movq	104(%r13), %rax
	cmpq	88(%r13), %rax
	jb	.LBB3_26
.Ltmp3:
	callq	_ZN3std10sys_common11thread_info14current_thread17h71fa6eaac75827abE
.Ltmp4:
	movq	%rax, %rbx
	testq	%rax, %rax
	je	.LBB3_93
	movl	$32, %edi
	callq	*malloc@GOTPCREL(%rip)
	testq	%rax, %rax
	je	.LBB3_91
	movq	%rax, %rbp
	movdqa	.LCPI3_0(%rip), %xmm0
	movdqu	%xmm0, (%rax)
	movq	%rbx, 16(%rax)
	movb	$0, 24(%rax)
	movl	16(%rsp), %eax
	movl	19(%rsp), %ecx
	movl	%eax, 25(%rbp)
	movl	%ecx, 28(%rbp)
	lock		addq	$1, (%rbp)
	jle	.LBB3_92
	movq	64(%rsp), %rax
	testq	%rax, %rax
	je	.LBB3_8
	lock		subq	$1, (%rax)
	jne	.LBB3_8
	#MEMBARRIER
	movq	%r14, %rdi
	callq	_ZN5alloc4sync12Arc$LT$T$GT$9drop_slow17h822db84bc9f55c3eE
	jmp	.LBB3_8
	.p2align	4, 0x90
.LBB3_21:
	movq	_ZN3std9panicking11panic_count18GLOBAL_PANIC_COUNT17h3b25e77861be4659E(%rip), %rax
	testq	%rax, %rax
	je	.LBB3_9
	callq	_ZN3std9panicking11panic_count17is_zero_slow_path17h114aac63407c5996E
	testb	%al, %al
	jne	.LBB3_9
	movb	$1, 32(%r13)
	jmp	.LBB3_9
.LBB3_24:
	callq	_ZN3std9panicking11panic_count17is_zero_slow_path17h114aac63407c5996E
	movl	%eax, %r15d
	xorb	$1, %r15b
	movzbl	32(%r13), %eax
	testb	%al, %al
	je	.LBB3_12
.LBB3_25:
	movq	%rbp, 40(%rsp)
	movb	%bl, 48(%rsp)
	movq	%rbp, 16(%rsp)
	movb	%r15b, 24(%rsp)
.Ltmp0:
	leaq	anon.03fa34025239a254ab5d789983420479.13.llvm.783488666902379826(%rip), %rdi
	leaq	.L__unnamed_3(%rip), %rcx
	leaq	.L__unnamed_4(%rip), %r8
	leaq	16(%rsp), %rdx
	movl	$43, %esi
	callq	_ZN4core6result13unwrap_failed17h9cb4e8dca1981ba0E
.Ltmp1:
	jmp	.LBB3_94
.LBB3_26:
	movq	%rbp, 40(%rsp)
	movb	%r15b, 48(%rsp)
	movq	64(%rsp), %rax
	testq	%rax, %rax
	je	.LBB3_30
	lock		subq	$1, (%rax)
	jne	.LBB3_29
	#MEMBARRIER
	leaq	64(%rsp), %rdi
	callq	_ZN5alloc4sync12Arc$LT$T$GT$9drop_slow17h1e82fdada470bc6dE
.LBB3_29:
	movb	48(%rsp), %r15b
	movq	40(%rsp), %rbp
.LBB3_30:
	movq	%rbp, 112(%rsp)
	movb	%r15b, 120(%rsp)
	cmpb	$0, 104(%rbp)
	je	.LBB3_34
	testb	%r15b, %r15b
	jne	.LBB3_33
	movq	_ZN3std9panicking11panic_count18GLOBAL_PANIC_COUNT17h3b25e77861be4659E(%rip), %rax
	testq	%rax, %rax
	jne	.LBB3_79
.LBB3_33:
	movq	(%rbp), %rdi
	callq	*pthread_mutex_unlock@GOTPCREL(%rip)
	movl	$1, %ebp
	jmp	.LBB3_78
.LBB3_34:
	movq	64(%rbp), %rsi
	testq	%rsi, %rsi
	je	.LBB3_96
	movq	80(%rbp), %rcx
	movq	72(%rbp), %rax
	addq	%rcx, %rax
	movq	%rax, %rdx
	orq	%rsi, %rdx
	shrq	$32, %rdx
	je	.LBB3_37
	xorl	%edx, %edx
	divq	%rsi
	jmp	.LBB3_38
.LBB3_37:
	xorl	%edx, %edx
	divl	%esi
.LBB3_38:
	addq	$1, %rcx
	movq	%rcx, 80(%rbp)
	movq	48(%rbp), %rax
	shlq	$4, %rdx
	movq	(%rax,%rdx), %rcx
	movq	$1, (%rax,%rdx)
	movq	%r12, 8(%rax,%rdx)
	cmpq	$1, %rcx
	je	.LBB3_97
	movq	32(%rbp), %rax
	movq	40(%rbp), %rbx
	movq	$2, 32(%rbp)
	movq	%rax, 40(%rsp)
	movq	%rbx, 48(%rsp)
	cmpq	$1, %rax
	je	.LBB3_45
	cmpq	$2, %rax
	jne	.LBB3_95
	cmpq	$0, 88(%rbp)
	je	.LBB3_56
	testb	%r15b, %r15b
	jne	.LBB3_44
	movq	_ZN3std9panicking11panic_count18GLOBAL_PANIC_COUNT17h3b25e77861be4659E(%rip), %rax
	testq	%rax, %rax
	jne	.LBB3_85
.LBB3_44:
	movq	(%rbp), %rdi
	callq	*pthread_mutex_unlock@GOTPCREL(%rip)
	jmp	.LBB3_55
.LBB3_45:
	movq	%rbx, 16(%rsp)
	testb	%r15b, %r15b
	jne	.LBB3_47
	movq	_ZN3std9panicking11panic_count18GLOBAL_PANIC_COUNT17h3b25e77861be4659E(%rip), %rax
	testq	%rax, %rax
	jne	.LBB3_81
.LBB3_47:
	movq	(%rbp), %rdi
	callq	*pthread_mutex_unlock@GOTPCREL(%rip)
	movb	$1, %cl
	xorl	%eax, %eax
	lock		cmpxchgb	%cl, 24(%rbx)
	jne	.LBB3_50
	movq	16(%rsp), %rax
	movq	16(%rax), %rsi
	movl	$1, %eax
	xchgl	%eax, 40(%rsi)
	cmpl	$-1, %eax
	jne	.LBB3_50
	addq	$40, %rsi
	movl	$202, %edi
	movl	$129, %edx
	movl	$1, %ecx
	xorl	%eax, %eax
	callq	*syscall@GOTPCREL(%rip)
.LBB3_50:
	movq	16(%rsp), %rax
	lock		subq	$1, (%rax)
	jne	.LBB3_52
	#MEMBARRIER
	leaq	16(%rsp), %rdi
	callq	_ZN5alloc4sync12Arc$LT$T$GT$9drop_slow17h1e82fdada470bc6dE
.LBB3_52:
	cmpq	$0, 40(%rsp)
	jne	.LBB3_55
	movq	48(%rsp), %rax
	lock		subq	$1, (%rax)
	jne	.LBB3_55
	leaq	48(%rsp), %rdi
	#MEMBARRIER
	callq	_ZN5alloc4sync12Arc$LT$T$GT$9drop_slow17h1e82fdada470bc6dE
.LBB3_55:
	xorl	%ebp, %ebp
.LBB3_78:
	leaq	80(%rsp), %rbx
	movq	%rbx, %rdi
	callq	_ZN4core3ptr13drop_in_place17h2f562d6787bbd004E
	#APP
	#NO_APP
	movq	%rbp, %rax
	movq	%r12, %rdx
	addq	$136, %rsp
	.cfi_def_cfa_offset 56
	popq	%rbx
	.cfi_def_cfa_offset 48
	popq	%r12
	.cfi_def_cfa_offset 40
	popq	%r13
	.cfi_def_cfa_offset 32
	popq	%r14
	.cfi_def_cfa_offset 24
	popq	%r15
	.cfi_def_cfa_offset 16
	popq	%rbp
	.cfi_def_cfa_offset 8
	retq
.LBB3_56:
	.cfi_def_cfa_offset 192
	movb	$0, 15(%rsp)
	cmpq	$0, 96(%rbp)
	jne	.LBB3_98
	leaq	15(%rsp), %rax
	movq	%rax, 96(%rbp)
	testb	%r15b, %r15b
	movq	%rbp, 64(%rsp)
	setne	72(%rsp)
.Ltmp14:
	callq	_ZN3std10sys_common11thread_info14current_thread17h71fa6eaac75827abE
.Ltmp15:
	movq	%rax, %r14
	testq	%rax, %rax
	je	.LBB3_99
	movl	$32, %edi
	callq	*malloc@GOTPCREL(%rip)
	testq	%rax, %rax
	je	.LBB3_91
	movq	%rax, %rbx
	movdqa	.LCPI3_0(%rip), %xmm0
	movdqu	%xmm0, (%rax)
	movq	%r14, 16(%rax)
	movb	$0, 24(%rax)
	movl	16(%rsp), %eax
	movl	19(%rsp), %ecx
	movl	%eax, 25(%rbx)
	movl	%ecx, 28(%rbx)
	lock		addq	$1, (%rbx)
	jle	.LBB3_92
	movq	%rbx, 128(%rsp)
	movdqu	32(%rbp), %xmm0
	movq	$0, 32(%rbp)
	movq	%rbx, 40(%rbp)
	movdqa	%xmm0, 16(%rsp)
	movq	%xmm0, %rax
	cmpq	$2, %rax
	jne	.LBB3_100
	testb	%r15b, %r15b
	jne	.LBB3_64
	movq	_ZN3std9panicking11panic_count18GLOBAL_PANIC_COUNT17h3b25e77861be4659E(%rip), %rax
	testq	%rax, %rax
	jne	.LBB3_87
.LBB3_64:
	movq	(%rbp), %rdi
	callq	*pthread_mutex_unlock@GOTPCREL(%rip)
.Ltmp19:
	movq	%rbx, %rdi
	callq	_ZN3std4sync4mpsc8blocking9WaitToken4wait17h8e6761468719f6d0E
.Ltmp20:
	movq	56(%rsp), %rbx
	movq	(%rbx), %rdi
	callq	*pthread_mutex_lock@GOTPCREL(%rip)
	movq	_ZN3std9panicking11panic_count18GLOBAL_PANIC_COUNT17h3b25e77861be4659E(%rip), %rax
	testq	%rax, %rax
	jne	.LBB3_83
	xorl	%ecx, %ecx
	movb	32(%r13), %al
	testb	%al, %al
	jne	.LBB3_84
.LBB3_67:
	movq	%rbx, 16(%rsp)
	movb	%cl, 24(%rsp)
	cmpb	$0, 15(%rsp)
	je	.LBB3_71
	movq	88(%r13), %rsi
	movq	96(%r13), %rdi
	addq	$-1, 104(%r13)
	testq	%rsi, %rsi
	je	.LBB3_101
	leaq	1(%rdi), %rax
	movq	%rax, %rdx
	orq	%rsi, %rdx
	shrq	$32, %rdx
	je	.LBB3_72
	xorl	%edx, %edx
	divq	%rsi
	jmp	.LBB3_73
.LBB3_71:
	xorl	%ebp, %ebp
	jmp	.LBB3_75
.LBB3_72:
	xorl	%edx, %edx
	divl	%esi
.LBB3_73:
	movq	%rdx, 96(%r13)
	cmpq	%rdi, %rsi
	jbe	.LBB3_102
	movq	72(%r13), %rax
	shlq	$4, %rdi
	movq	8(%rax,%rdi), %r12
	cmpq	$0, (%rax,%rdi)
	movq	$0, (%rax,%rdi)
	movl	$1, %ebp
	je	.LBB3_103
.LBB3_75:
	testb	%cl, %cl
	jne	.LBB3_77
	movq	_ZN3std9panicking11panic_count18GLOBAL_PANIC_COUNT17h3b25e77861be4659E(%rip), %rax
	testq	%rax, %rax
	jne	.LBB3_89
.LBB3_77:
	movq	56(%rsp), %rax
	movq	(%rax), %rdi
	callq	*pthread_mutex_unlock@GOTPCREL(%rip)
	jmp	.LBB3_78
.LBB3_79:
	callq	_ZN3std9panicking11panic_count17is_zero_slow_path17h114aac63407c5996E
	testb	%al, %al
	jne	.LBB3_33
	movb	$1, 8(%rbp)
	jmp	.LBB3_33
.LBB3_81:
	callq	_ZN3std9panicking11panic_count17is_zero_slow_path17h114aac63407c5996E
	testb	%al, %al
	jne	.LBB3_47
	movb	$1, 8(%rbp)
	jmp	.LBB3_47
.LBB3_83:
	callq	_ZN3std9panicking11panic_count17is_zero_slow_path17h114aac63407c5996E
	movl	%eax, %ecx
	xorb	$1, %cl
	movb	32(%r13), %al
	testb	%al, %al
	je	.LBB3_67
.LBB3_84:
	movq	%rbx, 16(%rsp)
	movb	%cl, 24(%rsp)
.Ltmp22:
	leaq	anon.03fa34025239a254ab5d789983420479.13.llvm.783488666902379826(%rip), %rdi
	leaq	.L__unnamed_3(%rip), %rcx
	leaq	.L__unnamed_5(%rip), %r8
	leaq	16(%rsp), %rdx
	movl	$43, %esi
	callq	_ZN4core6result13unwrap_failed17h9cb4e8dca1981ba0E
.Ltmp23:
	jmp	.LBB3_94
.LBB3_85:
	callq	_ZN3std9panicking11panic_count17is_zero_slow_path17h114aac63407c5996E
	testb	%al, %al
	jne	.LBB3_44
	movb	$1, 8(%rbp)
	jmp	.LBB3_44
.LBB3_87:
	callq	_ZN3std9panicking11panic_count17is_zero_slow_path17h114aac63407c5996E
	testb	%al, %al
	jne	.LBB3_64
	movb	$1, 8(%rbp)
	jmp	.LBB3_64
.LBB3_89:
	callq	_ZN3std9panicking11panic_count17is_zero_slow_path17h114aac63407c5996E
	testb	%al, %al
	jne	.LBB3_77
	movb	$1, 32(%r13)
	jmp	.LBB3_77
.LBB3_91:
	movl	$32, %edi
	movl	$8, %esi
	callq	_ZN5alloc5alloc18handle_alloc_error17h66207f37c5e1158cE
	ud2
.LBB3_92:
	ud2
	ud2
.LBB3_93:
.Ltmp9:
	callq	_ZN4core6option13expect_failed17h35edea9229f0b68aE
.Ltmp10:
.LBB3_94:
	ud2
.LBB3_95:
.Ltmp35:
	leaq	.L__unnamed_6(%rip), %rdi
	leaq	.L__unnamed_7(%rip), %rdx
	movl	$6, %esi
	callq	_ZN3std9panicking11begin_panic17h31d195daf38db136E
.Ltmp36:
	jmp	.LBB3_94
.LBB3_96:
.Ltmp41:
	leaq	str.0(%rip), %rdi
	leaq	.L__unnamed_8(%rip), %rdx
	movl	$57, %esi
	callq	_ZN4core9panicking5panic17h879f53aa45bf615bE
.Ltmp42:
	jmp	.LBB3_94
.LBB3_97:
.Ltmp38:
	leaq	.L__unnamed_9(%rip), %rdi
	leaq	.L__unnamed_10(%rip), %rdx
	movl	$32, %esi
	callq	_ZN4core9panicking5panic17h879f53aa45bf615bE
.Ltmp39:
	jmp	.LBB3_94
.LBB3_98:
.Ltmp12:
	leaq	.L__unnamed_11(%rip), %rdi
	leaq	.L__unnamed_12(%rip), %rdx
	movl	$42, %esi
	callq	_ZN4core9panicking5panic17h879f53aa45bf615bE
.Ltmp13:
	jmp	.LBB3_94
.LBB3_99:
.Ltmp32:
	callq	_ZN4core6option13expect_failed17h35edea9229f0b68aE
.Ltmp33:
	jmp	.LBB3_94
.LBB3_100:
.Ltmp16:
	leaq	.Lanon.239c3e3bdbdb80e76e08bceba4553aea.24(%rip), %rdi
	leaq	.L__unnamed_13(%rip), %rdx
	movl	$40, %esi
	callq	_ZN4core9panicking5panic17h879f53aa45bf615bE
.Ltmp17:
	jmp	.LBB3_94
.LBB3_101:
.Ltmp29:
	leaq	str.0(%rip), %rdi
	leaq	.L__unnamed_14(%rip), %rdx
	movl	$57, %esi
	callq	_ZN4core9panicking5panic17h879f53aa45bf615bE
.Ltmp30:
	jmp	.LBB3_94
.LBB3_102:
.Ltmp25:
	leaq	.L__unnamed_15(%rip), %rdx
	callq	_ZN4core9panicking18panic_bounds_check17h5de496fbf8268208E
.Ltmp26:
	jmp	.LBB3_94
.LBB3_103:
.Ltmp27:
	leaq	.Lanon.03fa34025239a254ab5d789983420479.9(%rip), %rdi
	leaq	.L__unnamed_16(%rip), %rdx
	movl	$43, %esi
	callq	_ZN4core9panicking5panic17h879f53aa45bf615bE
.Ltmp28:
	jmp	.LBB3_94
.LBB3_104:
.Ltmp31:
	movq	%rax, %rbx
	leaq	16(%rsp), %rdi
	jmp	.LBB3_116
.LBB3_105:
.Ltmp18:
	movq	%rax, %rbx
	leaq	16(%rsp), %rdi
	callq	_ZN4core3ptr13drop_in_place17h2cf40ea805a77371E
	leaq	128(%rsp), %rdi
	callq	_ZN4core3ptr13drop_in_place17h6f32fe250bbc628cE
	jmp	.LBB3_115
.LBB3_106:
.Ltmp24:
	movq	%rax, %rbx
	leaq	16(%rsp), %rdi
	callq	_ZN4core3ptr13drop_in_place17h451c6c51a559d151E
	jmp	.LBB3_117
.LBB3_107:
.Ltmp40:
	jmp	.LBB3_109
.LBB3_108:
.Ltmp43:
.LBB3_109:
	movq	%rax, %rbx
	leaq	112(%rsp), %rdi
	callq	_ZN4core3ptr13drop_in_place17h4724952f873bf679E
	jmp	.LBB3_122
.LBB3_110:
.Ltmp37:
	movq	%rax, %rbx
	leaq	112(%rsp), %rdi
	jmp	.LBB3_116
.LBB3_111:
.Ltmp11:
	jmp	.LBB3_119
.LBB3_112:
.Ltmp2:
	movq	%rax, %rbx
	leaq	16(%rsp), %rdi
	callq	_ZN4core3ptr13drop_in_place17h451c6c51a559d151E
	jmp	.LBB3_121
.LBB3_113:
.Ltmp21:
	movq	%rax, %rbx
	jmp	.LBB3_117
.LBB3_114:
.Ltmp34:
	movq	%rax, %rbx
.LBB3_115:
	leaq	64(%rsp), %rdi
.LBB3_116:
	callq	_ZN4core3ptr13drop_in_place17h4724952f873bf679E
.LBB3_117:
	leaq	40(%rsp), %rdi
	callq	_ZN4core3ptr13drop_in_place17h2cf40ea805a77371E
	jmp	.LBB3_122
.LBB3_118:
.Ltmp5:
.LBB3_119:
	movq	%rax, %rbx
	movq	56(%rsp), %rax
	movq	%rax, 40(%rsp)
	movb	%r15b, 48(%rsp)
	leaq	40(%rsp), %rdi
	callq	_ZN4core3ptr13drop_in_place17h4724952f873bf679E
	jmp	.LBB3_121
.LBB3_120:
.Ltmp8:
	movq	%rax, %rbx
	movq	%rbp, 40(%rsp)
	movb	%r15b, 48(%rsp)
.LBB3_121:
	leaq	64(%rsp), %rdi
	callq	_ZN4core3ptr13drop_in_place17ha99f28831a722aa8E
.LBB3_122:
	leaq	80(%rsp), %rdi
	callq	_ZN4core3ptr13drop_in_place17ha1099a35ea508b21E
	movq	%rbx, %rdi
	callq	_Unwind_Resume@PLT
	ud2
.Lfunc_end3:
	.size	_ZN3std10sys_common9backtrace28__rust_begin_short_backtrace17hca12820cf1d223c0E, .Lfunc_end3-_ZN3std10sys_common9backtrace28__rust_begin_short_backtrace17hca12820cf1d223c0E
	.cfi_endproc
	.section	.gcc_except_table,"a",@progbits
	.p2align	2
GCC_except_table3:
.Lexception0:
	.byte	255
	.byte	255
	.byte	1
	.uleb128 .Lcst_end0-.Lcst_begin0
.Lcst_begin0:
	.uleb128 .Ltmp6-.Lfunc_begin0
	.uleb128 .Ltmp7-.Ltmp6
	.uleb128 .Ltmp8-.Lfunc_begin0
	.byte	0
	.uleb128 .Ltmp3-.Lfunc_begin0
	.uleb128 .Ltmp4-.Ltmp3
	.uleb128 .Ltmp5-.Lfunc_begin0
	.byte	0
	.uleb128 .Ltmp0-.Lfunc_begin0
	.uleb128 .Ltmp1-.Ltmp0
	.uleb128 .Ltmp2-.Lfunc_begin0
	.byte	0
	.uleb128 .Ltmp1-.Lfunc_begin0
	.uleb128 .Ltmp14-.Ltmp1
	.byte	0
	.byte	0
	.uleb128 .Ltmp14-.Lfunc_begin0
	.uleb128 .Ltmp15-.Ltmp14
	.uleb128 .Ltmp34-.Lfunc_begin0
	.byte	0
	.uleb128 .Ltmp19-.Lfunc_begin0
	.uleb128 .Ltmp20-.Ltmp19
	.uleb128 .Ltmp21-.Lfunc_begin0
	.byte	0
	.uleb128 .Ltmp22-.Lfunc_begin0
	.uleb128 .Ltmp23-.Ltmp22
	.uleb128 .Ltmp24-.Lfunc_begin0
	.byte	0
	.uleb128 .Ltmp9-.Lfunc_begin0
	.uleb128 .Ltmp10-.Ltmp9
	.uleb128 .Ltmp11-.Lfunc_begin0
	.byte	0
	.uleb128 .Ltmp35-.Lfunc_begin0
	.uleb128 .Ltmp36-.Ltmp35
	.uleb128 .Ltmp37-.Lfunc_begin0
	.byte	0
	.uleb128 .Ltmp41-.Lfunc_begin0
	.uleb128 .Ltmp42-.Ltmp41
	.uleb128 .Ltmp43-.Lfunc_begin0
	.byte	0
	.uleb128 .Ltmp38-.Lfunc_begin0
	.uleb128 .Ltmp39-.Ltmp38
	.uleb128 .Ltmp40-.Lfunc_begin0
	.byte	0
	.uleb128 .Ltmp12-.Lfunc_begin0
	.uleb128 .Ltmp13-.Ltmp12
	.uleb128 .Ltmp37-.Lfunc_begin0
	.byte	0
	.uleb128 .Ltmp32-.Lfunc_begin0
	.uleb128 .Ltmp33-.Ltmp32
	.uleb128 .Ltmp34-.Lfunc_begin0
	.byte	0
	.uleb128 .Ltmp16-.Lfunc_begin0
	.uleb128 .Ltmp17-.Ltmp16
	.uleb128 .Ltmp18-.Lfunc_begin0
	.byte	0
	.uleb128 .Ltmp29-.Lfunc_begin0
	.uleb128 .Ltmp28-.Ltmp29
	.uleb128 .Ltmp31-.Lfunc_begin0
	.byte	0
	.uleb128 .Ltmp28-.Lfunc_begin0
	.uleb128 .Lfunc_end3-.Ltmp28
	.byte	0
	.byte	0
.Lcst_end0:
	.p2align	2

	.section	".text._ZN3std4sync4mpsc10spsc_queue52Queue$LT$T$C$ProducerAddition$C$ConsumerAddition$GT$3pop17h0620986c715f5163E","ax",@progbits
	.p2align	4, 0x90
	.type	_ZN3std4sync4mpsc10spsc_queue52Queue$LT$T$C$ProducerAddition$C$ConsumerAddition$GT$3pop17h0620986c715f5163E,@function
_ZN3std4sync4mpsc10spsc_queue52Queue$LT$T$C$ProducerAddition$C$ConsumerAddition$GT$3pop17h0620986c715f5163E:
.Lfunc_begin1:
	.cfi_startproc
	.cfi_personality 155, DW.ref.rust_eh_personality
	.cfi_lsda 27, .Lexception1
	pushq	%r14
	.cfi_def_cfa_offset 16
	pushq	%rbx
	.cfi_def_cfa_offset 24
	subq	$56, %rsp
	.cfi_def_cfa_offset 80
	.cfi_offset %rbx, -24
	.cfi_offset %r14, -16
	movq	%rdi, %r14
	movq	(%rsi), %rbx
	movq	24(%rbx), %rax
	testq	%rax, %rax
	je	.LBB4_15
	cmpq	$2, (%rax)
	je	.LBB4_16
	movq	(%rax), %rcx
	movups	8(%rax), %xmm0
	movaps	%xmm0, (%rsp)
	movq	$2, (%rax)
	movaps	32(%rsp), %xmm0
	movups	%xmm0, 8(%rax)
	movaps	(%rsp), %xmm0
	movq	%rcx, (%rsp)
	movups	%xmm0, 8(%rsp)
	movq	%rax, (%rsi)
	movq	16(%rsi), %rdx
	testq	%rdx, %rdx
	je	.LBB4_3
	movq	24(%rsi), %rcx
	movb	32(%rbx), %dil
	cmpq	%rdx, %rcx
	jae	.LBB4_8
	testb	%dil, %dil
	jne	.LBB4_7
	movq	%rcx, 24(%rsi)
	movb	$1, 32(%rbx)
.LBB4_7:
	addq	$8, %rsi
	movq	%rbx, (%rsi)
	jmp	.LBB4_13
.LBB4_15:
	movq	$2, (%r14)
	addq	$56, %rsp
	.cfi_def_cfa_offset 24
	popq	%rbx
	.cfi_def_cfa_offset 16
	popq	%r14
	.cfi_def_cfa_offset 8
	retq
.LBB4_3:
	.cfi_def_cfa_offset 80
	movq	%rbx, 8(%rsi)
	jmp	.LBB4_13
.LBB4_8:
	addq	$8, %rsi
	testb	%dil, %dil
	je	.LBB4_10
	movq	%rbx, (%rsi)
	jmp	.LBB4_13
.LBB4_10:
	movq	(%rsi), %rcx
	movq	%rax, 24(%rcx)
	movl	(%rbx), %eax
	orl	$2, %eax
	cmpl	$2, %eax
	je	.LBB4_12
	leaq	8(%rbx), %rdi
.Ltmp44:
	callq	_ZN4core3ptr13drop_in_place17h43ac3631ab207fe0E
.Ltmp45:
.LBB4_12:
	movq	%rbx, %rdi
	callq	*free@GOTPCREL(%rip)
.LBB4_13:
	movq	16(%rsp), %rax
	movq	%rax, 16(%r14)
	movups	(%rsp), %xmm0
	movups	%xmm0, (%r14)
	addq	$56, %rsp
	.cfi_def_cfa_offset 24
	popq	%rbx
	.cfi_def_cfa_offset 16
	popq	%r14
	.cfi_def_cfa_offset 8
	retq
.LBB4_16:
	.cfi_def_cfa_offset 80
	leaq	.L__unnamed_17(%rip), %rdi
	leaq	.L__unnamed_18(%rip), %rdx
	movl	$41, %esi
	callq	_ZN4core9panicking5panic17h879f53aa45bf615bE
	ud2
.LBB4_17:
.Ltmp46:
	movq	%rax, %r14
	movq	%rbx, %rdi
	callq	_ZN5alloc5alloc8box_free17h3288cca7f93057b7E.llvm.12602067952453011377
	movq	%rsp, %rdi
	callq	_ZN4core3ptr13drop_in_place17h63d4492c02d6ef6bE
	movq	%r14, %rdi
	callq	_Unwind_Resume@PLT
	ud2
.Lfunc_end4:
	.size	_ZN3std4sync4mpsc10spsc_queue52Queue$LT$T$C$ProducerAddition$C$ConsumerAddition$GT$3pop17h0620986c715f5163E, .Lfunc_end4-_ZN3std4sync4mpsc10spsc_queue52Queue$LT$T$C$ProducerAddition$C$ConsumerAddition$GT$3pop17h0620986c715f5163E
	.cfi_endproc
	.section	.gcc_except_table,"a",@progbits
	.p2align	2
GCC_except_table4:
.Lexception1:
	.byte	255
	.byte	255
	.byte	1
	.uleb128 .Lcst_end1-.Lcst_begin1
.Lcst_begin1:
	.uleb128 .Ltmp44-.Lfunc_begin1
	.uleb128 .Ltmp45-.Ltmp44
	.uleb128 .Ltmp46-.Lfunc_begin1
	.byte	0
	.uleb128 .Ltmp45-.Lfunc_begin1
	.uleb128 .Lfunc_end4-.Ltmp45
	.byte	0
	.byte	0
.Lcst_end1:
	.p2align	2

	.section	".text._ZN3std4sync4mpsc6shared15Packet$LT$T$GT$8try_recv17h658540f255cf2c4fE","ax",@progbits
	.p2align	4, 0x90
	.type	_ZN3std4sync4mpsc6shared15Packet$LT$T$GT$8try_recv17h658540f255cf2c4fE,@function
_ZN3std4sync4mpsc6shared15Packet$LT$T$GT$8try_recv17h658540f255cf2c4fE:
	.cfi_startproc
	pushq	%r14
	.cfi_def_cfa_offset 16
	pushq	%rbx
	.cfi_def_cfa_offset 24
	pushq	%rax
	.cfi_def_cfa_offset 32
	.cfi_offset %rbx, -24
	.cfi_offset %r14, -16
	movq	%rdi, %rbx
	movq	8(%rdi), %rdi
	movq	(%rdi), %rax
	testq	%rax, %rax
	je	.LBB5_1
.LBB5_6:
	movq	%rax, 8(%rbx)
	cmpq	$1, 8(%rdi)
	je	.LBB5_9
	cmpq	$1, 8(%rax)
	jne	.LBB5_8
	movq	16(%rax), %r14
	movq	$0, 8(%rax)
	callq	*free@GOTPCREL(%rip)
	movq	24(%rbx), %rax
	cmpq	$1048577, %rax
	jl	.LBB5_26
	movabsq	$-9223372036854775808, %rax
	xorl	%ecx, %ecx
	xchgq	%rcx, 16(%rbx)
	cmpq	%rax, %rcx
	je	.LBB5_14
	movq	24(%rbx), %rdx
	cmpq	%rdx, %rcx
	movq	%rcx, %rsi
	cmovgq	%rdx, %rsi
	subq	%rsi, %rdx
	movq	%rdx, 24(%rbx)
	subq	%rsi, %rcx
	lock		xaddq	%rcx, 16(%rbx)
	cmpq	%rax, %rcx
	jne	.LBB5_15
.LBB5_14:
	xchgq	%rax, 16(%rbx)
.LBB5_15:
	movq	24(%rbx), %rax
	testq	%rax, %rax
	js	.LBB5_16
.LBB5_26:
	addq	$1, %rax
	movq	%rax, 24(%rbx)
	xorl	%eax, %eax
.LBB5_27:
	movzbl	%cl, %ecx
	shlq	$8, %rcx
	movzbl	%al, %eax
	orq	%rcx, %rax
	movq	%r14, %rdx
	addq	$8, %rsp
	.cfi_def_cfa_offset 24
	popq	%rbx
	.cfi_def_cfa_offset 16
	popq	%r14
	.cfi_def_cfa_offset 8
	retq
.LBB5_1:
	.cfi_def_cfa_offset 32
	movq	(%rbx), %rax
	cmpq	%rax, %rdi
	je	.LBB5_17
	movq	sched_yield@GOTPCREL(%rip), %r14
	.p2align	4, 0x90
.LBB5_3:
	callq	*%r14
	movq	8(%rbx), %rdi
	movq	(%rdi), %rax
	testq	%rax, %rax
	jne	.LBB5_6
	movq	(%rbx), %rax
	cmpq	%rax, %rdi
	jne	.LBB5_3
	leaq	.L__unnamed_19(%rip), %rdi
	leaq	.L__unnamed_20(%rip), %rdx
	movl	$21, %esi
	callq	_ZN3std9panicking11begin_panic17h31d195daf38db136E
	ud2
.LBB5_17:
	movq	16(%rbx), %rax
	movabsq	$-9223372036854775808, %rcx
	cmpq	%rcx, %rax
	jne	.LBB5_18
	movq	8(%rbx), %rdi
	movq	(%rdi), %rax
	testq	%rax, %rax
	je	.LBB5_20
	movq	%rax, 8(%rbx)
	cmpq	$1, 8(%rdi)
	je	.LBB5_9
	cmpq	$1, 8(%rax)
	jne	.LBB5_8
	movq	16(%rax), %r14
	movq	$0, 8(%rax)
	callq	*free@GOTPCREL(%rip)
	movb	$1, %cl
	xorl	%eax, %eax
	jmp	.LBB5_27
.LBB5_18:
	movb	$1, %al
	xorl	%ecx, %ecx
	jmp	.LBB5_27
.LBB5_20:
	movq	(%rbx), %rax
	cmpq	%rax, %rdi
	jne	.LBB5_25
	movb	$1, %cl
	movb	$1, %al
	jmp	.LBB5_27
.LBB5_9:
	leaq	.L__unnamed_21(%rip), %rdi
	leaq	.L__unnamed_22(%rip), %rdx
	jmp	.LBB5_10
.LBB5_8:
	leaq	.L__unnamed_17(%rip), %rdi
	leaq	.L__unnamed_23(%rip), %rdx
	jmp	.LBB5_10
.LBB5_16:
	leaq	.L__unnamed_24(%rip), %rdi
	leaq	.L__unnamed_25(%rip), %rdx
.LBB5_10:
	movl	$41, %esi
	callq	_ZN4core9panicking5panic17h879f53aa45bf615bE
	ud2
.LBB5_25:
	leaq	.Lanon.239c3e3bdbdb80e76e08bceba4553aea.24(%rip), %rdi
	leaq	.L__unnamed_26(%rip), %rdx
	movl	$40, %esi
	callq	_ZN4core9panicking5panic17h879f53aa45bf615bE
	ud2
.Lfunc_end5:
	.size	_ZN3std4sync4mpsc6shared15Packet$LT$T$GT$8try_recv17h658540f255cf2c4fE, .Lfunc_end5-_ZN3std4sync4mpsc6shared15Packet$LT$T$GT$8try_recv17h658540f255cf2c4fE
	.cfi_endproc

	.section	.rodata.cst16,"aM",@progbits,16
	.p2align	4
.LCPI6_0:
	.quad	1
	.quad	4
	.section	".text._ZN3std4sync4mpsc6stream15Packet$LT$T$GT$8try_recv17hb54a9532178d18f3E","ax",@progbits
	.p2align	4, 0x90
	.type	_ZN3std4sync4mpsc6stream15Packet$LT$T$GT$8try_recv17hb54a9532178d18f3E,@function
_ZN3std4sync4mpsc6stream15Packet$LT$T$GT$8try_recv17hb54a9532178d18f3E:
.Lfunc_begin2:
	.cfi_startproc
	.cfi_personality 155, DW.ref.rust_eh_personality
	.cfi_lsda 27, .Lexception2
	pushq	%r14
	.cfi_def_cfa_offset 16
	pushq	%rbx
	.cfi_def_cfa_offset 24
	subq	$56, %rsp
	.cfi_def_cfa_offset 80
	.cfi_offset %rbx, -24
	.cfi_offset %r14, -16
	movq	%rsi, %rbx
	movq	%rdi, %r14
	leaq	32(%rsp), %rdi
	callq	_ZN3std4sync4mpsc10spsc_queue52Queue$LT$T$C$ProducerAddition$C$ConsumerAddition$GT$3pop17h0620986c715f5163E
	cmpl	$2, 32(%rsp)
	jne	.LBB6_3
	movq	88(%rbx), %rax
	movabsq	$-9223372036854775808, %rcx
	cmpq	%rcx, %rax
	jne	.LBB6_2
	movq	%rsp, %rdi
	movq	%rbx, %rsi
	callq	_ZN3std4sync4mpsc10spsc_queue52Queue$LT$T$C$ProducerAddition$C$ConsumerAddition$GT$3pop17h0620986c715f5163E
	movq	(%rsp), %rax
	cmpq	$2, %rax
	jne	.LBB6_15
	movq	$5, 8(%r14)
	jmp	.LBB6_18
.LBB6_3:
	movq	48(%rsp), %rax
	movq	%rax, 16(%rsp)
	movups	32(%rsp), %xmm0
	movaps	%xmm0, (%rsp)
	movq	32(%rbx), %rax
	cmpq	$1048577, %rax
	jl	.LBB6_9
	movabsq	$-9223372036854775808, %rax
	xorl	%ecx, %ecx
	xchgq	%rcx, 88(%rbx)
	cmpq	%rax, %rcx
	je	.LBB6_6
	movq	32(%rbx), %rdx
	cmpq	%rdx, %rcx
	movq	%rcx, %rsi
	cmovgq	%rdx, %rsi
	subq	%rsi, %rdx
	movq	%rdx, 32(%rbx)
	subq	%rsi, %rcx
	lock		xaddq	%rcx, 88(%rbx)
	cmpq	%rax, %rcx
	jne	.LBB6_7
.LBB6_6:
	xchgq	%rax, 88(%rbx)
.LBB6_7:
	movq	32(%rbx), %rax
	testq	%rax, %rax
	js	.LBB6_8
.LBB6_9:
	addq	$1, %rax
	movq	%rax, 32(%rbx)
	cmpl	$1, (%rsp)
	movq	8(%rsp), %rax
	jne	.LBB6_10
	movq	16(%rsp), %rcx
	movq	%rcx, 16(%r14)
	movl	$1, %ecx
	jmp	.LBB6_12
.LBB6_2:
	movaps	.LCPI6_0(%rip), %xmm0
	movups	%xmm0, (%r14)
	addq	$56, %rsp
	.cfi_def_cfa_offset 24
	popq	%rbx
	.cfi_def_cfa_offset 16
	popq	%r14
	.cfi_def_cfa_offset 8
	retq
.LBB6_10:
	.cfi_def_cfa_offset 80
	xorl	%ecx, %ecx
.LBB6_12:
	movq	%rax, 8(%r14)
	movq	%rcx, (%r14)
	addq	$56, %rsp
	.cfi_def_cfa_offset 24
	popq	%rbx
	.cfi_def_cfa_offset 16
	popq	%r14
	.cfi_def_cfa_offset 8
	retq
.LBB6_15:
	.cfi_def_cfa_offset 80
	movq	8(%rsp), %rcx
	cmpl	$1, %eax
	jne	.LBB6_16
	movq	16(%rsp), %rax
	movq	%rcx, 8(%r14)
	movq	%rax, 16(%r14)
.LBB6_18:
	movl	$1, %eax
	jmp	.LBB6_19
.LBB6_16:
	movq	%rcx, 8(%r14)
	xorl	%eax, %eax
.LBB6_19:
	movq	%rax, (%r14)
	addq	$56, %rsp
	.cfi_def_cfa_offset 24
	popq	%rbx
	.cfi_def_cfa_offset 16
	popq	%r14
	.cfi_def_cfa_offset 8
	retq
.LBB6_8:
	.cfi_def_cfa_offset 80
.Ltmp47:
	leaq	.L__unnamed_27(%rip), %rdi
	leaq	.L__unnamed_28(%rip), %rdx
	movl	$67, %esi
	callq	_ZN4core9panicking5panic17h879f53aa45bf615bE
.Ltmp48:
	ud2
.LBB6_21:
.Ltmp49:
	movq	%rax, %rbx
	movq	%rsp, %rdi
	callq	_ZN4core3ptr13drop_in_place17hff5069f82bdca40cE
	movq	%rbx, %rdi
	callq	_Unwind_Resume@PLT
	ud2
.Lfunc_end6:
	.size	_ZN3std4sync4mpsc6stream15Packet$LT$T$GT$8try_recv17hb54a9532178d18f3E, .Lfunc_end6-_ZN3std4sync4mpsc6stream15Packet$LT$T$GT$8try_recv17hb54a9532178d18f3E
	.cfi_endproc
	.section	.gcc_except_table,"a",@progbits
	.p2align	2
GCC_except_table6:
.Lexception2:
	.byte	255
	.byte	255
	.byte	1
	.uleb128 .Lcst_end2-.Lcst_begin2
.Lcst_begin2:
	.uleb128 .Lfunc_begin2-.Lfunc_begin2
	.uleb128 .Ltmp47-.Lfunc_begin2
	.byte	0
	.byte	0
	.uleb128 .Ltmp47-.Lfunc_begin2
	.uleb128 .Ltmp48-.Ltmp47
	.uleb128 .Ltmp49-.Lfunc_begin2
	.byte	0
	.uleb128 .Ltmp48-.Lfunc_begin2
	.uleb128 .Lfunc_end6-.Ltmp48
	.byte	0
	.byte	0
.Lcst_end2:
	.p2align	2

	.section	.text._ZN3std9panicking11begin_panic17h31d195daf38db136E,"ax",@progbits
	.p2align	4, 0x90
	.type	_ZN3std9panicking11begin_panic17h31d195daf38db136E,@function
_ZN3std9panicking11begin_panic17h31d195daf38db136E:
	.cfi_startproc
	subq	$24, %rsp
	.cfi_def_cfa_offset 32
	movq	%rdi, (%rsp)
	movq	%rsi, 8(%rsp)
	movq	%rdx, 16(%rsp)
	movq	%rsp, %rdi
	callq	_ZN3std10sys_common9backtrace26__rust_end_short_backtrace17h478561ad17ab74c2E
	ud2
.Lfunc_end7:
	.size	_ZN3std9panicking11begin_panic17h31d195daf38db136E, .Lfunc_end7-_ZN3std9panicking11begin_panic17h31d195daf38db136E
	.cfi_endproc

	.section	".text._ZN3std9panicking11begin_panic28_$u7b$$u7b$closure$u7d$$u7d$17hc7ca81ebbae453e4E","ax",@progbits
	.p2align	4, 0x90
	.type	_ZN3std9panicking11begin_panic28_$u7b$$u7b$closure$u7d$$u7d$17hc7ca81ebbae453e4E,@function
_ZN3std9panicking11begin_panic28_$u7b$$u7b$closure$u7d$$u7d$17hc7ca81ebbae453e4E:
	.cfi_startproc
	subq	$24, %rsp
	.cfi_def_cfa_offset 32
	movups	(%rdi), %xmm0
	movups	%xmm0, 8(%rsp)
	movq	16(%rdi), %rcx
	leaq	.L__unnamed_29(%rip), %rsi
	leaq	8(%rsp), %rdi
	xorl	%edx, %edx
	callq	_ZN3std9panicking20rust_panic_with_hook17h446c6af2839e37d3E
	ud2
.Lfunc_end8:
	.size	_ZN3std9panicking11begin_panic28_$u7b$$u7b$closure$u7d$$u7d$17hc7ca81ebbae453e4E, .Lfunc_end8-_ZN3std9panicking11begin_panic28_$u7b$$u7b$closure$u7d$$u7d$17hc7ca81ebbae453e4E
	.cfi_endproc

	.section	".text._ZN42_$LT$$RF$T$u20$as$u20$core..fmt..Debug$GT$3fmt17h19aace9ba3b20d23E","ax",@progbits
	.p2align	4, 0x90
	.type	_ZN42_$LT$$RF$T$u20$as$u20$core..fmt..Debug$GT$3fmt17h19aace9ba3b20d23E,@function
_ZN42_$LT$$RF$T$u20$as$u20$core..fmt..Debug$GT$3fmt17h19aace9ba3b20d23E:
	.cfi_startproc
	subq	$136, %rsp
	.cfi_def_cfa_offset 144
	movq	%rsi, %r10
	movq	(%rdi), %rax
	movl	48(%rsi), %edx
	testb	$16, %dl
	jne	.LBB9_8
	movq	(%rax), %rcx
	testb	$32, %dl
	jne	.LBB9_16
	movl	$39, %esi
	cmpq	$10000, %rcx
	jb	.LBB9_3
	movl	$39, %r11d
	movabsq	$3777893186295716171, %r8
	leaq	anon.c6988f58eecb6b8d7c0eb83e83c77e96.5.llvm.2672803169347448000(%rip), %r9
	.p2align	4, 0x90
.LBB9_13:
	movq	%rcx, %rax
	mulq	%r8
	shrq	$11, %rdx
	imull	$10000, %edx, %eax
	movl	%ecx, %esi
	subl	%eax, %esi
	movzwl	%si, %eax
	shrl	$2, %eax
	imull	$5243, %eax, %eax
	shrl	$17, %eax
	imull	$100, %eax, %edi
	subl	%edi, %esi
	movzwl	%si, %edi
	leaq	-4(%r11), %rsi
	movzwl	(%r9,%rax,2), %eax
	movw	%ax, 4(%rsp,%r11)
	movzwl	(%r9,%rdi,2), %eax
	movw	%ax, 6(%rsp,%r11)
	movq	%rsi, %r11
	cmpq	$99999999, %rcx
	movq	%rdx, %rcx
	ja	.LBB9_13
	cmpq	$99, %rdx
	jle	.LBB9_6
.LBB9_5:
	movzwl	%dx, %eax
	shrl	$2, %eax
	imull	$5243, %eax, %eax
	shrl	$17, %eax
	imull	$100, %eax, %ecx
	subl	%ecx, %edx
	movzwl	%dx, %ecx
	leaq	anon.c6988f58eecb6b8d7c0eb83e83c77e96.5.llvm.2672803169347448000(%rip), %rdx
	movzwl	(%rdx,%rcx,2), %ecx
	movw	%cx, 6(%rsp,%rsi)
	addq	$-2, %rsi
	movq	%rax, %rdx
.LBB9_6:
	cmpq	$10, %rdx
	jge	.LBB9_7
	addb	$48, %dl
	movb	%dl, 7(%rsp,%rsi)
	addq	$-1, %rsi
	jmp	.LBB9_15
.LBB9_8:
	movq	(%rax), %rcx
	leaq	136(%rsp), %r8
	xorl	%r9d, %r9d
	movq	%rcx, %rax
	.p2align	4, 0x90
.LBB9_9:
	shrq	$4, %rax
	andb	$15, %cl
	leal	48(%rcx), %edx
	leal	87(%rcx), %esi
	cmpb	$10, %cl
	movzbl	%dl, %ecx
	movzbl	%sil, %edx
	cmovbl	%ecx, %edx
	movb	%dl, -1(%r8)
	addq	$-1, %r8
	addq	$1, %r9
	movq	%rax, %rcx
	testq	%rax, %rax
	jne	.LBB9_9
	jmp	.LBB9_10
.LBB9_16:
	leaq	136(%rsp), %r8
	xorl	%r9d, %r9d
	movq	%rcx, %rax
	.p2align	4, 0x90
.LBB9_17:
	shrq	$4, %rax
	andb	$15, %cl
	leal	48(%rcx), %edx
	leal	55(%rcx), %esi
	cmpb	$10, %cl
	movzbl	%dl, %ecx
	movzbl	%sil, %edx
	cmovbl	%ecx, %edx
	movb	%dl, -1(%r8)
	addq	$-1, %r8
	addq	$1, %r9
	movq	%rax, %rcx
	testq	%rax, %rax
	jne	.LBB9_17
.LBB9_10:
	movl	$128, %edi
	subq	%r9, %rdi
	cmpq	$129, %rdi
	jae	.LBB9_11
	leaq	.Lanon.97a8facaf9f06d724305ce2ee536a3cf.79(%rip), %rdx
	movl	$2, %ecx
	movq	%r10, %rdi
	movl	$1, %esi
	callq	_ZN4core3fmt9Formatter12pad_integral17h12e30b8708a6ddceE
	addq	$136, %rsp
	.cfi_def_cfa_offset 8
	retq
.LBB9_3:
	.cfi_def_cfa_offset 144
	movq	%rcx, %rdx
	cmpq	$99, %rdx
	jg	.LBB9_5
	jmp	.LBB9_6
.LBB9_7:
	leaq	anon.c6988f58eecb6b8d7c0eb83e83c77e96.5.llvm.2672803169347448000(%rip), %rax
	movzwl	(%rax,%rdx,2), %eax
	movw	%ax, 6(%rsp,%rsi)
	addq	$-2, %rsi
.LBB9_15:
	leaq	(%rsp,%rsi), %r8
	addq	$8, %r8
	movl	$39, %r9d
	subq	%rsi, %r9
	leaq	.Lanon.44270d117240652e2c29b279aed00257.9(%rip), %rdx
	movq	%r10, %rdi
	movl	$1, %esi
	xorl	%ecx, %ecx
	callq	_ZN4core3fmt9Formatter12pad_integral17h12e30b8708a6ddceE
	addq	$136, %rsp
	.cfi_def_cfa_offset 8
	retq
.LBB9_11:
	.cfi_def_cfa_offset 144
	leaq	anon.c6988f58eecb6b8d7c0eb83e83c77e96.1.llvm.2672803169347448000(%rip), %rdx
	movl	$128, %esi
	callq	_ZN4core5slice5index26slice_start_index_len_fail17he782d03f18baf96dE
	ud2
.Lfunc_end9:
	.size	_ZN42_$LT$$RF$T$u20$as$u20$core..fmt..Debug$GT$3fmt17h19aace9ba3b20d23E, .Lfunc_end9-_ZN42_$LT$$RF$T$u20$as$u20$core..fmt..Debug$GT$3fmt17h19aace9ba3b20d23E
	.cfi_endproc

	.section	".text._ZN42_$LT$$RF$T$u20$as$u20$core..fmt..Debug$GT$3fmt17h69a6518eea210ae1E","ax",@progbits
	.p2align	4, 0x90
	.type	_ZN42_$LT$$RF$T$u20$as$u20$core..fmt..Debug$GT$3fmt17h69a6518eea210ae1E,@function
_ZN42_$LT$$RF$T$u20$as$u20$core..fmt..Debug$GT$3fmt17h69a6518eea210ae1E:
	.cfi_startproc
	pushq	%rbx
	.cfi_def_cfa_offset 16
	subq	$128, %rsp
	.cfi_def_cfa_offset 144
	.cfi_offset %rbx, -16
	movq	%rsi, %r10
	movq	(%rdi), %rax
	movl	48(%rsi), %ecx
	testb	$16, %cl
	jne	.LBB10_8
	movq	(%rax), %rdi
	testb	$32, %cl
	jne	.LBB10_16
	movq	%rdi, %r11
	negq	%r11
	cmovlq	%rdi, %r11
	movl	$39, %eax
	cmpq	$10000, %r11
	jb	.LBB10_3
	movl	$39, %esi
	movabsq	$3777893186295716171, %r8
	leaq	anon.c6988f58eecb6b8d7c0eb83e83c77e96.5.llvm.2672803169347448000(%rip), %r9
	.p2align	4, 0x90
.LBB10_13:
	movq	%r11, %rax
	mulq	%r8
	shrq	$11, %rdx
	imull	$10000, %edx, %eax
	movl	%r11d, %ecx
	subl	%eax, %ecx
	movzwl	%cx, %eax
	shrl	$2, %eax
	imull	$5243, %eax, %ebx
	shrl	$17, %ebx
	imull	$100, %ebx, %eax
	subl	%eax, %ecx
	movzwl	%cx, %ecx
	leaq	-4(%rsi), %rax
	movzwl	(%r9,%rbx,2), %ebx
	movw	%bx, -4(%rsp,%rsi)
	movzwl	(%r9,%rcx,2), %ecx
	movw	%cx, -2(%rsp,%rsi)
	movq	%rax, %rsi
	cmpq	$99999999, %r11
	movq	%rdx, %r11
	ja	.LBB10_13
	cmpq	$99, %rdx
	jle	.LBB10_6
.LBB10_5:
	movzwl	%dx, %ecx
	shrl	$2, %ecx
	imull	$5243, %ecx, %ecx
	shrl	$17, %ecx
	imull	$100, %ecx, %esi
	subl	%esi, %edx
	movzwl	%dx, %edx
	leaq	anon.c6988f58eecb6b8d7c0eb83e83c77e96.5.llvm.2672803169347448000(%rip), %rsi
	movzwl	(%rsi,%rdx,2), %edx
	movw	%dx, -2(%rsp,%rax)
	addq	$-2, %rax
	movq	%rcx, %rdx
.LBB10_6:
	cmpq	$10, %rdx
	jge	.LBB10_7
	addb	$48, %dl
	movb	%dl, -1(%rsp,%rax)
	addq	$-1, %rax
	jmp	.LBB10_15
.LBB10_8:
	movq	(%rax), %rcx
	leaq	128(%rsp), %r8
	xorl	%r9d, %r9d
	movq	%rcx, %rax
	.p2align	4, 0x90
.LBB10_9:
	shrq	$4, %rax
	andb	$15, %cl
	leal	48(%rcx), %edx
	leal	87(%rcx), %esi
	cmpb	$10, %cl
	movzbl	%dl, %ecx
	movzbl	%sil, %edx
	cmovbl	%ecx, %edx
	movb	%dl, -1(%r8)
	addq	$-1, %r8
	addq	$1, %r9
	movq	%rax, %rcx
	testq	%rax, %rax
	jne	.LBB10_9
	jmp	.LBB10_10
.LBB10_16:
	leaq	128(%rsp), %r8
	xorl	%r9d, %r9d
	movq	%rdi, %rax
	.p2align	4, 0x90
.LBB10_17:
	shrq	$4, %rax
	andb	$15, %dil
	leal	48(%rdi), %ecx
	leal	55(%rdi), %edx
	cmpb	$10, %dil
	movzbl	%cl, %ecx
	movzbl	%dl, %edx
	cmovbl	%ecx, %edx
	movb	%dl, -1(%r8)
	addq	$-1, %r8
	addq	$1, %r9
	movq	%rax, %rdi
	testq	%rax, %rax
	jne	.LBB10_17
.LBB10_10:
	movl	$128, %edi
	subq	%r9, %rdi
	cmpq	$129, %rdi
	jae	.LBB10_11
	leaq	.Lanon.97a8facaf9f06d724305ce2ee536a3cf.79(%rip), %rdx
	movl	$2, %ecx
	movq	%r10, %rdi
	movl	$1, %esi
	callq	_ZN4core3fmt9Formatter12pad_integral17h12e30b8708a6ddceE
	addq	$128, %rsp
	.cfi_def_cfa_offset 16
	popq	%rbx
	.cfi_def_cfa_offset 8
	retq
.LBB10_3:
	.cfi_def_cfa_offset 144
	movq	%r11, %rdx
	cmpq	$99, %rdx
	jg	.LBB10_5
	jmp	.LBB10_6
.LBB10_7:
	leaq	anon.c6988f58eecb6b8d7c0eb83e83c77e96.5.llvm.2672803169347448000(%rip), %rcx
	movzwl	(%rcx,%rdx,2), %ecx
	movw	%cx, -2(%rsp,%rax)
	addq	$-2, %rax
.LBB10_15:
	xorl	%esi, %esi
	testq	%rdi, %rdi
	setns	%sil
	leaq	(%rsp,%rax), %r8
	movl	$39, %r9d
	subq	%rax, %r9
	leaq	.Lanon.44270d117240652e2c29b279aed00257.9(%rip), %rdx
	movq	%r10, %rdi
	xorl	%ecx, %ecx
	callq	_ZN4core3fmt9Formatter12pad_integral17h12e30b8708a6ddceE
	addq	$128, %rsp
	.cfi_def_cfa_offset 16
	popq	%rbx
	.cfi_def_cfa_offset 8
	retq
.LBB10_11:
	.cfi_def_cfa_offset 144
	leaq	anon.c6988f58eecb6b8d7c0eb83e83c77e96.1.llvm.2672803169347448000(%rip), %rdx
	movl	$128, %esi
	callq	_ZN4core5slice5index26slice_start_index_len_fail17he782d03f18baf96dE
	ud2
.Lfunc_end10:
	.size	_ZN42_$LT$$RF$T$u20$as$u20$core..fmt..Debug$GT$3fmt17h69a6518eea210ae1E, .Lfunc_end10-_ZN42_$LT$$RF$T$u20$as$u20$core..fmt..Debug$GT$3fmt17h69a6518eea210ae1E
	.cfi_endproc

	.section	".text._ZN4core3ops8function6FnOnce40call_once$u7b$$u7b$vtable.shim$u7d$$u7d$17h212aceb7f31e36d8E","ax",@progbits
	.p2align	4, 0x90
	.type	_ZN4core3ops8function6FnOnce40call_once$u7b$$u7b$vtable.shim$u7d$$u7d$17h212aceb7f31e36d8E,@function
_ZN4core3ops8function6FnOnce40call_once$u7b$$u7b$vtable.shim$u7d$$u7d$17h212aceb7f31e36d8E:
.Lfunc_begin3:
	.cfi_startproc
	.cfi_personality 155, DW.ref.rust_eh_personality
	.cfi_lsda 27, .Lexception3
	pushq	%rbp
	.cfi_def_cfa_offset 16
	pushq	%r15
	.cfi_def_cfa_offset 24
	pushq	%r14
	.cfi_def_cfa_offset 32
	pushq	%r13
	.cfi_def_cfa_offset 40
	pushq	%r12
	.cfi_def_cfa_offset 48
	pushq	%rbx
	.cfi_def_cfa_offset 56
	subq	$216, %rsp
	.cfi_def_cfa_offset 272
	.cfi_offset %rbx, -56
	.cfi_offset %r12, -48
	.cfi_offset %r13, -40
	.cfi_offset %r14, -32
	.cfi_offset %r15, -24
	.cfi_offset %rbp, -16
	movq	%rdi, %rbx
	movq	(%rdi), %rax
	movq	16(%rax), %rsi
	testq	%rsi, %rsi
	je	.LBB11_2
	movl	$15, %edi
	xorl	%edx, %edx
	xorl	%ecx, %ecx
	xorl	%r8d, %r8d
	xorl	%eax, %eax
	callq	*prctl@GOTPCREL(%rip)
.LBB11_2:
	movq	8(%rbx), %rdi
.Ltmp50:
	callq	_ZN3std2io5stdio18set_output_capture17h93978920033e0877E
.Ltmp51:
	movq	%rax, 128(%rsp)
	testq	%rax, %rax
	je	.LBB11_6
	lock		subq	$1, (%rax)
	jne	.LBB11_6
	#MEMBARRIER
	leaq	128(%rsp), %rdi
	callq	_ZN5alloc4sync12Arc$LT$T$GT$9drop_slow17hcaa08d5bc0dd82c3E
.LBB11_6:
	movq	$0, 192(%rsp)
	xorps	%xmm0, %xmm0
	movaps	%xmm0, 160(%rsp)
	movaps	%xmm0, 144(%rsp)
	movaps	%xmm0, 128(%rsp)
	movq	$0, 176(%rsp)
	callq	*pthread_self@GOTPCREL(%rip)
	leaq	128(%rsp), %rsi
	movq	%rax, %rdi
	callq	*pthread_getattr_np@GOTPCREL(%rip)
	testl	%eax, %eax
	jne	.LBB11_16
	movq	$0, 24(%rsp)
	leaq	128(%rsp), %rdi
	leaq	24(%rsp), %rsi
	callq	*pthread_attr_getguardsize@GOTPCREL(%rip)
	movl	%eax, 16(%rsp)
	testl	%eax, %eax
	jne	.LBB11_11
	cmpq	$0, 24(%rsp)
	je	.LBB11_13
	movq	$0, 72(%rsp)
	movq	$0, 16(%rsp)
	leaq	128(%rsp), %rdi
	leaq	72(%rsp), %rsi
	leaq	16(%rsp), %r14
	movq	%r14, %rdx
	callq	*pthread_attr_getstack@GOTPCREL(%rip)
	movl	%eax, 36(%rsp)
	testl	%eax, %eax
	jne	.LBB11_10
	movq	72(%rsp), %rax
	movq	24(%rsp), %rcx
	movq	%rax, %rdx
	subq	%rcx, %rdx
	addq	%rax, %rcx
	movq	$1, 192(%rsp)
	movq	%rdx, 200(%rsp)
	movq	%rcx, 208(%rsp)
	leaq	128(%rsp), %rdi
	callq	*pthread_attr_destroy@GOTPCREL(%rip)
	movl	%eax, 16(%rsp)
	testl	%eax, %eax
	jne	.LBB11_15
.LBB11_16:
	movq	(%rbx), %rsi
.Ltmp58:
	leaq	192(%rsp), %rdi
	callq	_ZN3std10sys_common11thread_info3set17h58532d8b2358b00dE
.Ltmp59:
	movups	16(%rbx), %xmm0
	movq	32(%rbx), %rax
	movaps	%xmm0, 128(%rsp)
	movq	%rax, 144(%rsp)
.Ltmp61:
	leaq	128(%rsp), %rdi
	callq	_ZN3std10sys_common9backtrace28__rust_begin_short_backtrace17hca12820cf1d223c0E
.Ltmp62:
	movq	%rax, %r15
	movq	%rdx, %r14
	xorl	%r13d, %r13d
.LBB11_19:
	movq	40(%rbx), %rbp
	movl	16(%rbp), %eax
	orl	$2, %eax
	cmpl	$2, %eax
	je	.LBB11_23
	movq	24(%rbp), %rdi
	movq	32(%rbp), %rax
.Ltmp64:
	callq	*(%rax)
.Ltmp65:
	movq	32(%rbp), %rax
	cmpq	$0, 8(%rax)
	je	.LBB11_23
	movq	24(%rbp), %rdi
	callq	*free@GOTPCREL(%rip)
.LBB11_23:
	addq	$40, %rbx
	movq	%r13, 16(%rbp)
	movq	%r15, 24(%rbp)
	movq	%r14, 32(%rbp)
	movq	(%rbx), %rax
	lock		subq	$1, (%rax)
	jne	.LBB11_30
	#MEMBARRIER
	movq	%rbx, %rdi
	addq	$216, %rsp
	.cfi_def_cfa_offset 56
	popq	%rbx
	.cfi_def_cfa_offset 48
	popq	%r12
	.cfi_def_cfa_offset 40
	popq	%r13
	.cfi_def_cfa_offset 32
	popq	%r14
	.cfi_def_cfa_offset 24
	popq	%r15
	.cfi_def_cfa_offset 16
	popq	%rbp
	.cfi_def_cfa_offset 8
	jmp	_ZN5alloc4sync12Arc$LT$T$GT$9drop_slow17h4362465d5653348dE
.LBB11_30:
	.cfi_def_cfa_offset 272
	addq	$216, %rsp
	.cfi_def_cfa_offset 56
	popq	%rbx
	.cfi_def_cfa_offset 48
	popq	%r12
	.cfi_def_cfa_offset 40
	popq	%r13
	.cfi_def_cfa_offset 32
	popq	%r14
	.cfi_def_cfa_offset 24
	popq	%r15
	.cfi_def_cfa_offset 16
	popq	%rbp
	.cfi_def_cfa_offset 8
	retq
.LBB11_11:
	.cfi_def_cfa_offset 272
	leaq	16(%rsp), %rax
	movq	%rax, (%rsp)
	leaq	.Lanon.44270d117240652e2c29b279aed00257.124(%rip), %rax
	movq	%rax, 8(%rsp)
	movq	%rsp, %rax
	movq	%rax, 40(%rsp)
	leaq	_ZN42_$LT$$RF$T$u20$as$u20$core..fmt..Debug$GT$3fmt17hd9d6b3cbf9380777E(%rip), %rax
	movq	%rax, 48(%rsp)
	leaq	8(%rsp), %rcx
	movq	%rcx, 56(%rsp)
	movq	%rax, 64(%rsp)
	leaq	anon.44270d117240652e2c29b279aed00257.126.llvm.3683828415613454216(%rip), %rax
	movq	%rax, 80(%rsp)
	movq	$3, 88(%rsp)
	movq	$0, 96(%rsp)
	leaq	40(%rsp), %rax
	movq	%rax, 112(%rsp)
	movq	$2, 120(%rsp)
.Ltmp52:
	leaq	.Lanon.0bc4b03b1367d57f1fe2ddddf8bed743.72(%rip), %rsi
	leaq	80(%rsp), %rdi
	callq	_ZN4core9panicking9panic_fmt17h88d1befd03709389E
.Ltmp53:
	jmp	.LBB11_12
.LBB11_13:
.Ltmp67:
	leaq	.Lanon.0bc4b03b1367d57f1fe2ddddf8bed743.75(%rip), %rdi
	leaq	.Lanon.0bc4b03b1367d57f1fe2ddddf8bed743.76(%rip), %rdx
	movl	$22, %esi
	callq	_ZN3std9panicking11begin_panic17h31a582d6fa0e6660E
.Ltmp68:
	jmp	.LBB11_12
.LBB11_10:
	leaq	36(%rsp), %rax
	movq	%rax, (%rsp)
	leaq	.Lanon.44270d117240652e2c29b279aed00257.124(%rip), %rax
	movq	%rax, 8(%rsp)
	movq	%rsp, %rax
	movq	%rax, 40(%rsp)
	leaq	_ZN42_$LT$$RF$T$u20$as$u20$core..fmt..Debug$GT$3fmt17hd9d6b3cbf9380777E(%rip), %rax
	movq	%rax, 48(%rsp)
	leaq	8(%rsp), %rcx
	movq	%rcx, 56(%rsp)
	movq	%rax, 64(%rsp)
	leaq	anon.44270d117240652e2c29b279aed00257.126.llvm.3683828415613454216(%rip), %rax
	movq	%rax, 80(%rsp)
	movq	$3, 88(%rsp)
	movq	$0, 96(%rsp)
	leaq	40(%rsp), %rax
	movq	%rax, 112(%rsp)
	movq	$2, 120(%rsp)
.Ltmp54:
	leaq	.Lanon.0bc4b03b1367d57f1fe2ddddf8bed743.73(%rip), %rsi
	leaq	80(%rsp), %rdi
	callq	_ZN4core9panicking9panic_fmt17h88d1befd03709389E
.Ltmp55:
	jmp	.LBB11_12
.LBB11_15:
	movq	%r14, (%rsp)
	leaq	.Lanon.44270d117240652e2c29b279aed00257.124(%rip), %rax
	movq	%rax, 8(%rsp)
	movq	%rsp, %rax
	movq	%rax, 40(%rsp)
	leaq	_ZN42_$LT$$RF$T$u20$as$u20$core..fmt..Debug$GT$3fmt17hd9d6b3cbf9380777E(%rip), %rax
	movq	%rax, 48(%rsp)
	leaq	8(%rsp), %rcx
	movq	%rcx, 56(%rsp)
	movq	%rax, 64(%rsp)
	leaq	anon.44270d117240652e2c29b279aed00257.126.llvm.3683828415613454216(%rip), %rax
	movq	%rax, 80(%rsp)
	movq	$3, 88(%rsp)
	movq	$0, 96(%rsp)
	leaq	40(%rsp), %rax
	movq	%rax, 112(%rsp)
	movq	$2, 120(%rsp)
.Ltmp56:
	leaq	.Lanon.0bc4b03b1367d57f1fe2ddddf8bed743.74(%rip), %rsi
	leaq	80(%rsp), %rdi
	callq	_ZN4core9panicking9panic_fmt17h88d1befd03709389E
.Ltmp57:
.LBB11_12:
	ud2
.LBB11_25:
.Ltmp66:
	movq	%rax, %r12
	movq	24(%rbp), %rdi
	movq	32(%rbp), %rax
	movq	8(%rax), %rsi
	callq	_ZN5alloc5alloc8box_free17h292378dea4494778E
	movq	%r13, 16(%rbp)
	movq	%r15, 24(%rbp)
	movq	%r14, 32(%rbp)
	jmp	.LBB11_26
.LBB11_29:
.Ltmp69:
	movq	%rax, %r12
	movq	%rbx, %rdi
	callq	_ZN4core3ptr13drop_in_place17hb6fa37f944447a1bE
	jmp	.LBB11_28
.LBB11_31:
.Ltmp63:
	movq	%rax, %rdi
	callq	_ZN3std9panicking3try7cleanup17h06941c87b3e267bbE
	movq	%rax, %r15
	movq	%rdx, %r14
	movl	$1, %r13d
	jmp	.LBB11_19
.LBB11_27:
.Ltmp60:
	movq	%rax, %r12
.LBB11_28:
	leaq	16(%rbx), %rdi
	callq	_ZN4core3ptr13drop_in_place17ha1099a35ea508b21E
.LBB11_26:
	addq	$40, %rbx
	movq	%rbx, %rdi
	callq	_ZN4core3ptr13drop_in_place17hab28c41aa9648dd1E
	movq	%r12, %rdi
	callq	_Unwind_Resume@PLT
	ud2
.Lfunc_end11:
	.size	_ZN4core3ops8function6FnOnce40call_once$u7b$$u7b$vtable.shim$u7d$$u7d$17h212aceb7f31e36d8E, .Lfunc_end11-_ZN4core3ops8function6FnOnce40call_once$u7b$$u7b$vtable.shim$u7d$$u7d$17h212aceb7f31e36d8E
	.cfi_endproc
	.section	.gcc_except_table,"a",@progbits
	.p2align	2
GCC_except_table11:
.Lexception3:
	.byte	255
	.byte	156
	.uleb128 .Lttbase0-.Lttbaseref0
.Lttbaseref0:
	.byte	1
	.uleb128 .Lcst_end3-.Lcst_begin3
.Lcst_begin3:
	.uleb128 .Ltmp50-.Lfunc_begin3
	.uleb128 .Ltmp51-.Ltmp50
	.uleb128 .Ltmp69-.Lfunc_begin3
	.byte	0
	.uleb128 .Ltmp58-.Lfunc_begin3
	.uleb128 .Ltmp59-.Ltmp58
	.uleb128 .Ltmp60-.Lfunc_begin3
	.byte	0
	.uleb128 .Ltmp61-.Lfunc_begin3
	.uleb128 .Ltmp62-.Ltmp61
	.uleb128 .Ltmp63-.Lfunc_begin3
	.byte	3
	.uleb128 .Ltmp64-.Lfunc_begin3
	.uleb128 .Ltmp65-.Ltmp64
	.uleb128 .Ltmp66-.Lfunc_begin3
	.byte	0
	.uleb128 .Ltmp65-.Lfunc_begin3
	.uleb128 .Ltmp52-.Ltmp65
	.byte	0
	.byte	0
	.uleb128 .Ltmp52-.Lfunc_begin3
	.uleb128 .Ltmp57-.Ltmp52
	.uleb128 .Ltmp69-.Lfunc_begin3
	.byte	0
	.uleb128 .Ltmp57-.Lfunc_begin3
	.uleb128 .Lfunc_end11-.Ltmp57
	.byte	0
	.byte	0
.Lcst_end3:
	.byte	0
	.byte	0
	.byte	1
	.byte	125
	.p2align	2
	.quad	0
.Lttbase0:
	.p2align	2

	.section	.text._ZN4core3ptr13drop_in_place17h0083c7083d35b8a4E,"ax",@progbits
	.p2align	4, 0x90
	.type	_ZN4core3ptr13drop_in_place17h0083c7083d35b8a4E,@function
_ZN4core3ptr13drop_in_place17h0083c7083d35b8a4E:
	.cfi_startproc
	retq
.Lfunc_end12:
	.size	_ZN4core3ptr13drop_in_place17h0083c7083d35b8a4E, .Lfunc_end12-_ZN4core3ptr13drop_in_place17h0083c7083d35b8a4E
	.cfi_endproc

	.section	.text._ZN4core3ptr13drop_in_place17h05c0638cac95cb3eE,"ax",@progbits
	.p2align	4, 0x90
	.type	_ZN4core3ptr13drop_in_place17h05c0638cac95cb3eE,@function
_ZN4core3ptr13drop_in_place17h05c0638cac95cb3eE:
.Lfunc_begin4:
	.cfi_startproc
	.cfi_personality 155, DW.ref.rust_eh_personality
	.cfi_lsda 27, .Lexception4
	pushq	%r15
	.cfi_def_cfa_offset 16
	pushq	%r14
	.cfi_def_cfa_offset 24
	pushq	%rbx
	.cfi_def_cfa_offset 32
	.cfi_offset %rbx, -32
	.cfi_offset %r14, -24
	.cfi_offset %r15, -16
	movq	72(%rdi), %rbx
	testq	%rbx, %rbx
	je	.LBB13_5
	movq	free@GOTPCREL(%rip), %r14
	jmp	.LBB13_2
	.p2align	4, 0x90
.LBB13_4:
	movq	%rbx, %rdi
	callq	*%r14
	movq	%r15, %rbx
	testq	%r15, %r15
	je	.LBB13_5
.LBB13_2:
	movq	24(%rbx), %r15
	movl	(%rbx), %eax
	orl	$2, %eax
	cmpl	$2, %eax
	je	.LBB13_4
	leaq	8(%rbx), %rdi
.Ltmp70:
	callq	_ZN4core3ptr13drop_in_place17h43ac3631ab207fe0E
.Ltmp71:
	jmp	.LBB13_4
.LBB13_5:
	popq	%rbx
	.cfi_def_cfa_offset 24
	popq	%r14
	.cfi_def_cfa_offset 16
	popq	%r15
	.cfi_def_cfa_offset 8
	retq
.LBB13_6:
	.cfi_def_cfa_offset 32
.Ltmp72:
	movq	%rax, %r14
	movq	%rbx, %rdi
	callq	_ZN5alloc5alloc8box_free17h3288cca7f93057b7E.llvm.12602067952453011377
	movq	%r14, %rdi
	callq	_Unwind_Resume@PLT
	ud2
.Lfunc_end13:
	.size	_ZN4core3ptr13drop_in_place17h05c0638cac95cb3eE, .Lfunc_end13-_ZN4core3ptr13drop_in_place17h05c0638cac95cb3eE
	.cfi_endproc
	.section	.gcc_except_table,"a",@progbits
	.p2align	2
GCC_except_table13:
.Lexception4:
	.byte	255
	.byte	255
	.byte	1
	.uleb128 .Lcst_end4-.Lcst_begin4
.Lcst_begin4:
	.uleb128 .Lfunc_begin4-.Lfunc_begin4
	.uleb128 .Ltmp70-.Lfunc_begin4
	.byte	0
	.byte	0
	.uleb128 .Ltmp70-.Lfunc_begin4
	.uleb128 .Ltmp71-.Ltmp70
	.uleb128 .Ltmp72-.Lfunc_begin4
	.byte	0
	.uleb128 .Ltmp71-.Lfunc_begin4
	.uleb128 .Lfunc_end13-.Ltmp71
	.byte	0
	.byte	0
.Lcst_end4:
	.p2align	2

	.section	.text._ZN4core3ptr13drop_in_place17h0776c0c4d2663192E,"ax",@progbits
	.p2align	4, 0x90
	.type	_ZN4core3ptr13drop_in_place17h0776c0c4d2663192E,@function
_ZN4core3ptr13drop_in_place17h0776c0c4d2663192E:
	.cfi_startproc
	movq	(%rdi), %rax
	lock		subq	$1, (%rax)
	jne	.LBB14_1
	#MEMBARRIER
	jmp	_ZN5alloc4sync12Arc$LT$T$GT$9drop_slow17hf1af2c8314bcc9e4E
.LBB14_1:
	retq
.Lfunc_end14:
	.size	_ZN4core3ptr13drop_in_place17h0776c0c4d2663192E, .Lfunc_end14-_ZN4core3ptr13drop_in_place17h0776c0c4d2663192E
	.cfi_endproc

	.section	.text._ZN4core3ptr13drop_in_place17h1049ef95f2b1fb74E,"ax",@progbits
	.p2align	4, 0x90
	.type	_ZN4core3ptr13drop_in_place17h1049ef95f2b1fb74E,@function
_ZN4core3ptr13drop_in_place17h1049ef95f2b1fb74E:
	.cfi_startproc
	pushq	%rbx
	.cfi_def_cfa_offset 16
	.cfi_offset %rbx, -16
	movq	%rdi, %rbx
	movq	16(%rdi), %rax
	cmpq	$1, %rax
	je	.LBB15_2
	testq	%rax, %rax
	jne	.LBB15_4
.LBB15_2:
	movq	24(%rbx), %rax
	lock		subq	$1, (%rax)
	jne	.LBB15_4
	leaq	24(%rbx), %rdi
	#MEMBARRIER
	callq	_ZN5alloc4sync12Arc$LT$T$GT$9drop_slow17h1e82fdada470bc6dE
.LBB15_4:
	movq	40(%rbx), %rax
	testq	%rax, %rax
	je	.LBB15_7
	movq	32(%rbx), %rdi
	testq	%rdi, %rdi
	je	.LBB15_7
	movabsq	$1152921504606846975, %rcx
	andq	%rcx, %rax
	je	.LBB15_7
	popq	%rbx
	.cfi_def_cfa_offset 8
	jmpq	*free@GOTPCREL(%rip)
.LBB15_7:
	.cfi_def_cfa_offset 16
	popq	%rbx
	.cfi_def_cfa_offset 8
	retq
.Lfunc_end15:
	.size	_ZN4core3ptr13drop_in_place17h1049ef95f2b1fb74E, .Lfunc_end15-_ZN4core3ptr13drop_in_place17h1049ef95f2b1fb74E
	.cfi_endproc

	.section	.text._ZN4core3ptr13drop_in_place17h1876b58dff8f0243E,"ax",@progbits
	.p2align	4, 0x90
	.type	_ZN4core3ptr13drop_in_place17h1876b58dff8f0243E,@function
_ZN4core3ptr13drop_in_place17h1876b58dff8f0243E:
.Lfunc_begin5:
	.cfi_startproc
	.cfi_personality 155, DW.ref.rust_eh_personality
	.cfi_lsda 27, .Lexception5
	pushq	%r15
	.cfi_def_cfa_offset 16
	pushq	%r14
	.cfi_def_cfa_offset 24
	pushq	%rbx
	.cfi_def_cfa_offset 32
	.cfi_offset %rbx, -32
	.cfi_offset %r14, -24
	.cfi_offset %r15, -16
	cmpb	$2, (%rdi)
	jae	.LBB16_1
	popq	%rbx
	.cfi_def_cfa_offset 24
	popq	%r14
	.cfi_def_cfa_offset 16
	popq	%r15
	.cfi_def_cfa_offset 8
	retq
.LBB16_1:
	.cfi_def_cfa_offset 32
	movq	%rdi, %r15
	movq	8(%rdi), %rbx
	movq	(%rbx), %rdi
	movq	8(%rbx), %rax
.Ltmp73:
	callq	*(%rax)
.Ltmp74:
	movq	8(%rbx), %rax
	cmpq	$0, 8(%rax)
	je	.LBB16_4
	movq	(%rbx), %rdi
	callq	*free@GOTPCREL(%rip)
.LBB16_4:
	movq	8(%r15), %rdi
	popq	%rbx
	.cfi_def_cfa_offset 24
	popq	%r14
	.cfi_def_cfa_offset 16
	popq	%r15
	.cfi_def_cfa_offset 8
	jmpq	*free@GOTPCREL(%rip)
.LBB16_6:
	.cfi_def_cfa_offset 32
.Ltmp75:
	movq	%rax, %r14
	movq	(%rbx), %rdi
	movq	8(%rbx), %rax
	movq	8(%rax), %rsi
	callq	_ZN5alloc5alloc8box_free17h292378dea4494778E
	movq	8(%r15), %rdi
	callq	_ZN5alloc5alloc8box_free17h3288cca7f93057b7E.llvm.12602067952453011377
	movq	%r14, %rdi
	callq	_Unwind_Resume@PLT
	ud2
.Lfunc_end16:
	.size	_ZN4core3ptr13drop_in_place17h1876b58dff8f0243E, .Lfunc_end16-_ZN4core3ptr13drop_in_place17h1876b58dff8f0243E
	.cfi_endproc
	.section	.gcc_except_table,"a",@progbits
	.p2align	2
GCC_except_table16:
.Lexception5:
	.byte	255
	.byte	255
	.byte	1
	.uleb128 .Lcst_end5-.Lcst_begin5
.Lcst_begin5:
	.uleb128 .Ltmp73-.Lfunc_begin5
	.uleb128 .Ltmp74-.Ltmp73
	.uleb128 .Ltmp75-.Lfunc_begin5
	.byte	0
	.uleb128 .Ltmp74-.Lfunc_begin5
	.uleb128 .Lfunc_end16-.Ltmp74
	.byte	0
	.byte	0
.Lcst_end5:
	.p2align	2

	.section	.text._ZN4core3ptr13drop_in_place17h2cf40ea805a77371E,"ax",@progbits
	.p2align	4, 0x90
	.type	_ZN4core3ptr13drop_in_place17h2cf40ea805a77371E,@function
_ZN4core3ptr13drop_in_place17h2cf40ea805a77371E:
	.cfi_startproc
	movq	(%rdi), %rax
	testq	%rax, %rax
	je	.LBB17_2
	cmpl	$1, %eax
	jne	.LBB17_3
.LBB17_2:
	movq	8(%rdi), %rax
	lock		subq	$1, (%rax)
	jne	.LBB17_3
	addq	$8, %rdi
	#MEMBARRIER
	jmp	_ZN5alloc4sync12Arc$LT$T$GT$9drop_slow17h1e82fdada470bc6dE
.LBB17_3:
	retq
.Lfunc_end17:
	.size	_ZN4core3ptr13drop_in_place17h2cf40ea805a77371E, .Lfunc_end17-_ZN4core3ptr13drop_in_place17h2cf40ea805a77371E
	.cfi_endproc

	.section	.text._ZN4core3ptr13drop_in_place17h2f562d6787bbd004E,"ax",@progbits
	.p2align	4, 0x90
	.type	_ZN4core3ptr13drop_in_place17h2f562d6787bbd004E,@function
_ZN4core3ptr13drop_in_place17h2f562d6787bbd004E:
.Lfunc_begin6:
	.cfi_startproc
	.cfi_personality 155, DW.ref.rust_eh_personality
	.cfi_lsda 27, .Lexception6
	pushq	%r15
	.cfi_def_cfa_offset 16
	pushq	%r14
	.cfi_def_cfa_offset 24
	pushq	%r12
	.cfi_def_cfa_offset 32
	pushq	%rbx
	.cfi_def_cfa_offset 40
	subq	$40, %rsp
	.cfi_def_cfa_offset 80
	.cfi_offset %rbx, -40
	.cfi_offset %r12, -32
	.cfi_offset %r14, -24
	.cfi_offset %r15, -16
	movq	%rdi, %r15
	movq	(%rdi), %rbx
	lock		subq	$1, 16(%rbx)
	jne	.LBB18_29
	movq	24(%rbx), %rdi
	callq	*pthread_mutex_lock@GOTPCREL(%rip)
	movq	_ZN3std9panicking11panic_count18GLOBAL_PANIC_COUNT17h3b25e77861be4659E(%rip), %rax
	testq	%rax, %rax
	jne	.LBB18_3
	xorl	%eax, %eax
	leaq	24(%rbx), %r14
	movb	32(%rbx), %cl
	testb	%cl, %cl
	jne	.LBB18_5
.LBB18_7:
	movq	%r14, 24(%rsp)
	movb	%al, 32(%rsp)
	cmpb	$0, 128(%rbx)
	jne	.LBB18_24
	movb	$1, 128(%rbx)
	movq	56(%rbx), %rcx
	movq	64(%rbx), %r12
	movq	$2, 56(%rbx)
	movq	%rcx, (%rsp)
	movq	%r12, 8(%rsp)
	cmpq	$1, %rcx
	je	.LBB18_11
	cmpq	$2, %rcx
	jne	.LBB18_10
.LBB18_24:
	testb	%al, %al
	jne	.LBB18_28
	movq	_ZN3std9panicking11panic_count18GLOBAL_PANIC_COUNT17h3b25e77861be4659E(%rip), %rax
	testq	%rax, %rax
	jne	.LBB18_26
.LBB18_28:
	movq	(%r14), %rdi
	callq	*pthread_mutex_unlock@GOTPCREL(%rip)
.LBB18_29:
	movq	(%r15), %rax
	lock		subq	$1, (%rax)
	jne	.LBB18_30
	#MEMBARRIER
	movq	%r15, %rdi
	addq	$40, %rsp
	.cfi_def_cfa_offset 40
	popq	%rbx
	.cfi_def_cfa_offset 32
	popq	%r12
	.cfi_def_cfa_offset 24
	popq	%r14
	.cfi_def_cfa_offset 16
	popq	%r15
	.cfi_def_cfa_offset 8
	jmp	_ZN5alloc4sync12Arc$LT$T$GT$9drop_slow17hf1af2c8314bcc9e4E
.LBB18_30:
	.cfi_def_cfa_offset 80
	addq	$40, %rsp
	.cfi_def_cfa_offset 40
	popq	%rbx
	.cfi_def_cfa_offset 32
	popq	%r12
	.cfi_def_cfa_offset 24
	popq	%r14
	.cfi_def_cfa_offset 16
	popq	%r15
	.cfi_def_cfa_offset 8
	retq
.LBB18_11:
	.cfi_def_cfa_offset 80
	movq	%r12, 16(%rsp)
	testb	%al, %al
	jne	.LBB18_15
	movq	_ZN3std9panicking11panic_count18GLOBAL_PANIC_COUNT17h3b25e77861be4659E(%rip), %rax
	testq	%rax, %rax
	jne	.LBB18_13
.LBB18_15:
	movq	(%r14), %rdi
	callq	*pthread_mutex_unlock@GOTPCREL(%rip)
	movb	$1, %cl
	xorl	%eax, %eax
	lock		cmpxchgb	%cl, 24(%r12)
	jne	.LBB18_18
	movq	16(%rsp), %rax
	movq	16(%rax), %rsi
	movl	$1, %eax
	xchgl	%eax, 40(%rsi)
	cmpl	$-1, %eax
	jne	.LBB18_18
	addq	$40, %rsi
	movl	$202, %edi
	movl	$129, %edx
	movl	$1, %ecx
	xorl	%eax, %eax
	callq	*syscall@GOTPCREL(%rip)
.LBB18_18:
	movq	16(%rsp), %rax
	lock		subq	$1, (%rax)
	jne	.LBB18_20
	#MEMBARRIER
	leaq	16(%rsp), %rdi
	callq	_ZN5alloc4sync12Arc$LT$T$GT$9drop_slow17h1e82fdada470bc6dE
.LBB18_20:
	cmpq	$0, (%rsp)
	jne	.LBB18_29
	movq	8(%rsp), %rax
	lock		subq	$1, (%rax)
	jne	.LBB18_29
	leaq	8(%rsp), %rdi
	#MEMBARRIER
	callq	_ZN5alloc4sync12Arc$LT$T$GT$9drop_slow17h1e82fdada470bc6dE
	jmp	.LBB18_29
.LBB18_3:
	callq	_ZN3std9panicking11panic_count17is_zero_slow_path17h114aac63407c5996E
	xorb	$1, %al
	leaq	24(%rbx), %r14
	movb	32(%rbx), %cl
	testb	%cl, %cl
	je	.LBB18_7
.LBB18_5:
	movq	%r14, (%rsp)
	movb	%al, 8(%rsp)
.Ltmp76:
	leaq	anon.03fa34025239a254ab5d789983420479.13.llvm.783488666902379826(%rip), %rdi
	leaq	.L__unnamed_3(%rip), %rcx
	leaq	.L__unnamed_30(%rip), %r8
	movq	%rsp, %rdx
	movl	$43, %esi
	callq	_ZN4core6result13unwrap_failed17h9cb4e8dca1981ba0E
.Ltmp77:
	jmp	.LBB18_6
.LBB18_26:
	callq	_ZN3std9panicking11panic_count17is_zero_slow_path17h114aac63407c5996E
	testb	%al, %al
	jne	.LBB18_28
	movb	$1, 32(%rbx)
	jmp	.LBB18_28
.LBB18_13:
	callq	_ZN3std9panicking11panic_count17is_zero_slow_path17h114aac63407c5996E
	testb	%al, %al
	jne	.LBB18_15
	movb	$1, 32(%rbx)
	jmp	.LBB18_15
.LBB18_10:
.Ltmp79:
	leaq	.Lanon.239c3e3bdbdb80e76e08bceba4553aea.24(%rip), %rdi
	leaq	.L__unnamed_31(%rip), %rdx
	movl	$40, %esi
	callq	_ZN4core9panicking5panic17h879f53aa45bf615bE
.Ltmp80:
.LBB18_6:
	ud2
.LBB18_23:
.Ltmp81:
	movq	%rax, %r14
	leaq	24(%rsp), %rdi
	callq	_ZN4core3ptr13drop_in_place17h4724952f873bf679E
	movq	%rsp, %rdi
	callq	_ZN4core3ptr13drop_in_place17h2cf40ea805a77371E
	jmp	.LBB18_32
.LBB18_31:
.Ltmp78:
	movq	%rax, %r14
	movq	%rsp, %rdi
	callq	_ZN4core3ptr13drop_in_place17h451c6c51a559d151E
.LBB18_32:
	movq	%r15, %rdi
	callq	_ZN4core3ptr13drop_in_place17h0776c0c4d2663192E
	movq	%r14, %rdi
	callq	_Unwind_Resume@PLT
	ud2
.Lfunc_end18:
	.size	_ZN4core3ptr13drop_in_place17h2f562d6787bbd004E, .Lfunc_end18-_ZN4core3ptr13drop_in_place17h2f562d6787bbd004E
	.cfi_endproc
	.section	.gcc_except_table,"a",@progbits
	.p2align	2
GCC_except_table18:
.Lexception6:
	.byte	255
	.byte	255
	.byte	1
	.uleb128 .Lcst_end6-.Lcst_begin6
.Lcst_begin6:
	.uleb128 .Lfunc_begin6-.Lfunc_begin6
	.uleb128 .Ltmp76-.Lfunc_begin6
	.byte	0
	.byte	0
	.uleb128 .Ltmp76-.Lfunc_begin6
	.uleb128 .Ltmp77-.Ltmp76
	.uleb128 .Ltmp78-.Lfunc_begin6
	.byte	0
	.uleb128 .Ltmp79-.Lfunc_begin6
	.uleb128 .Ltmp80-.Ltmp79
	.uleb128 .Ltmp81-.Lfunc_begin6
	.byte	0
	.uleb128 .Ltmp80-.Lfunc_begin6
	.uleb128 .Lfunc_end18-.Ltmp80
	.byte	0
	.byte	0
.Lcst_end6:
	.p2align	2

	.section	.text._ZN4core3ptr13drop_in_place17h36fd28f17d6dce22E,"ax",@progbits
	.p2align	4, 0x90
	.type	_ZN4core3ptr13drop_in_place17h36fd28f17d6dce22E,@function
_ZN4core3ptr13drop_in_place17h36fd28f17d6dce22E:
	.cfi_startproc
	movq	(%rdi), %rax
	cmpq	$2, %rax
	je	.LBB19_7
	cmpl	$1, %eax
	je	.LBB19_5
	testq	%rax, %rax
	jne	.LBB19_9
	movq	8(%rdi), %rax
	lock		subq	$1, (%rax)
	jne	.LBB19_10
	addq	$8, %rdi
	#MEMBARRIER
	jmp	_ZN5alloc4sync12Arc$LT$T$GT$9drop_slow17h960c8f7c6a960751E
.LBB19_7:
	movq	8(%rdi), %rax
	lock		subq	$1, (%rax)
	jne	.LBB19_10
	addq	$8, %rdi
	#MEMBARRIER
	jmp	_ZN5alloc4sync12Arc$LT$T$GT$9drop_slow17h1355cbf8e875e2ddE
.LBB19_5:
	movq	8(%rdi), %rax
	lock		subq	$1, (%rax)
	jne	.LBB19_10
	addq	$8, %rdi
	#MEMBARRIER
	jmp	_ZN5alloc4sync12Arc$LT$T$GT$9drop_slow17h6c51691a7d09bc61E
.LBB19_9:
	movq	8(%rdi), %rax
	lock		subq	$1, (%rax)
	jne	.LBB19_10
	addq	$8, %rdi
	#MEMBARRIER
	jmp	_ZN5alloc4sync12Arc$LT$T$GT$9drop_slow17hf1af2c8314bcc9e4E
.LBB19_10:
	retq
.Lfunc_end19:
	.size	_ZN4core3ptr13drop_in_place17h36fd28f17d6dce22E, .Lfunc_end19-_ZN4core3ptr13drop_in_place17h36fd28f17d6dce22E
	.cfi_endproc

	.section	.text._ZN4core3ptr13drop_in_place17h396c5661d60a69fbE,"ax",@progbits
	.p2align	4, 0x90
	.type	_ZN4core3ptr13drop_in_place17h396c5661d60a69fbE,@function
_ZN4core3ptr13drop_in_place17h396c5661d60a69fbE:
	.cfi_startproc
	movq	8(%rdi), %rax
	testq	%rax, %rax
	je	.LBB20_3
	movq	(%rdi), %rdi
	testq	%rdi, %rdi
	je	.LBB20_3
	movabsq	$1152921504606846975, %rcx
	andq	%rcx, %rax
	je	.LBB20_3
	jmpq	*free@GOTPCREL(%rip)
.LBB20_3:
	retq
.Lfunc_end20:
	.size	_ZN4core3ptr13drop_in_place17h396c5661d60a69fbE, .Lfunc_end20-_ZN4core3ptr13drop_in_place17h396c5661d60a69fbE
	.cfi_endproc

	.section	.text._ZN4core3ptr13drop_in_place17h3ab0f8717a52b523E,"ax",@progbits
	.p2align	4, 0x90
	.type	_ZN4core3ptr13drop_in_place17h3ab0f8717a52b523E,@function
_ZN4core3ptr13drop_in_place17h3ab0f8717a52b523E:
	.cfi_startproc
	movq	%rdi, %rax
	movq	(%rdi), %rdi
	testq	%rdi, %rdi
	je	.LBB21_2
	cmpq	$0, 8(%rax)
	je	.LBB21_2
	jmpq	*free@GOTPCREL(%rip)
.LBB21_2:
	retq
.Lfunc_end21:
	.size	_ZN4core3ptr13drop_in_place17h3ab0f8717a52b523E, .Lfunc_end21-_ZN4core3ptr13drop_in_place17h3ab0f8717a52b523E
	.cfi_endproc

	.section	.text._ZN4core3ptr13drop_in_place17h4128ccba4f4cf9feE,"ax",@progbits
	.p2align	4, 0x90
	.type	_ZN4core3ptr13drop_in_place17h4128ccba4f4cf9feE,@function
_ZN4core3ptr13drop_in_place17h4128ccba4f4cf9feE:
	.cfi_startproc
	pushq	%rbx
	.cfi_def_cfa_offset 16
	.cfi_offset %rbx, -16
	movq	%rdi, %rbx
	movq	(%rdi), %rdi
	callq	*pthread_mutex_destroy@GOTPCREL(%rip)
	movq	(%rbx), %rdi
	popq	%rbx
	.cfi_def_cfa_offset 8
	jmpq	*free@GOTPCREL(%rip)
.Lfunc_end22:
	.size	_ZN4core3ptr13drop_in_place17h4128ccba4f4cf9feE, .Lfunc_end22-_ZN4core3ptr13drop_in_place17h4128ccba4f4cf9feE
	.cfi_endproc

	.section	.text._ZN4core3ptr13drop_in_place17h43ac3631ab207fe0E,"ax",@progbits
	.p2align	4, 0x90
	.type	_ZN4core3ptr13drop_in_place17h43ac3631ab207fe0E,@function
_ZN4core3ptr13drop_in_place17h43ac3631ab207fe0E:
.Lfunc_begin7:
	.cfi_startproc
	.cfi_personality 155, DW.ref.rust_eh_personality
	.cfi_lsda 27, .Lexception7
	pushq	%r14
	.cfi_def_cfa_offset 16
	pushq	%rbx
	.cfi_def_cfa_offset 24
	pushq	%rax
	.cfi_def_cfa_offset 32
	.cfi_offset %rbx, -24
	.cfi_offset %r14, -16
	movq	%rdi, %rbx
.Ltmp82:
	callq	_ZN76_$LT$std..sync..mpsc..Receiver$LT$T$GT$$u20$as$u20$core..ops..drop..Drop$GT$4drop17hcc99b8b2e8415a98E
.Ltmp83:
	movq	(%rbx), %rax
	cmpq	$2, %rax
	je	.LBB23_8
	cmpl	$1, %eax
	je	.LBB23_6
	testq	%rax, %rax
	jne	.LBB23_10
	movq	8(%rbx), %rax
	lock		subq	$1, (%rax)
	jne	.LBB23_11
	addq	$8, %rbx
	#MEMBARRIER
	movq	%rbx, %rdi
	addq	$8, %rsp
	.cfi_def_cfa_offset 24
	popq	%rbx
	.cfi_def_cfa_offset 16
	popq	%r14
	.cfi_def_cfa_offset 8
	jmp	_ZN5alloc4sync12Arc$LT$T$GT$9drop_slow17h960c8f7c6a960751E
.LBB23_8:
	.cfi_def_cfa_offset 32
	movq	8(%rbx), %rax
	lock		subq	$1, (%rax)
	jne	.LBB23_11
	addq	$8, %rbx
	#MEMBARRIER
	movq	%rbx, %rdi
	addq	$8, %rsp
	.cfi_def_cfa_offset 24
	popq	%rbx
	.cfi_def_cfa_offset 16
	popq	%r14
	.cfi_def_cfa_offset 8
	jmp	_ZN5alloc4sync12Arc$LT$T$GT$9drop_slow17h1355cbf8e875e2ddE
.LBB23_6:
	.cfi_def_cfa_offset 32
	movq	8(%rbx), %rax
	lock		subq	$1, (%rax)
	jne	.LBB23_11
	addq	$8, %rbx
	#MEMBARRIER
	movq	%rbx, %rdi
	addq	$8, %rsp
	.cfi_def_cfa_offset 24
	popq	%rbx
	.cfi_def_cfa_offset 16
	popq	%r14
	.cfi_def_cfa_offset 8
	jmp	_ZN5alloc4sync12Arc$LT$T$GT$9drop_slow17h6c51691a7d09bc61E
.LBB23_10:
	.cfi_def_cfa_offset 32
	movq	8(%rbx), %rax
	lock		subq	$1, (%rax)
	jne	.LBB23_11
	addq	$8, %rbx
	#MEMBARRIER
	movq	%rbx, %rdi
	addq	$8, %rsp
	.cfi_def_cfa_offset 24
	popq	%rbx
	.cfi_def_cfa_offset 16
	popq	%r14
	.cfi_def_cfa_offset 8
	jmp	_ZN5alloc4sync12Arc$LT$T$GT$9drop_slow17hf1af2c8314bcc9e4E
.LBB23_11:
	.cfi_def_cfa_offset 32
	addq	$8, %rsp
	.cfi_def_cfa_offset 24
	popq	%rbx
	.cfi_def_cfa_offset 16
	popq	%r14
	.cfi_def_cfa_offset 8
	retq
.LBB23_12:
	.cfi_def_cfa_offset 32
.Ltmp84:
	movq	%rax, %r14
	movq	%rbx, %rdi
	callq	_ZN4core3ptr13drop_in_place17h36fd28f17d6dce22E
	movq	%r14, %rdi
	callq	_Unwind_Resume@PLT
	ud2
.Lfunc_end23:
	.size	_ZN4core3ptr13drop_in_place17h43ac3631ab207fe0E, .Lfunc_end23-_ZN4core3ptr13drop_in_place17h43ac3631ab207fe0E
	.cfi_endproc
	.section	.gcc_except_table,"a",@progbits
	.p2align	2
GCC_except_table23:
.Lexception7:
	.byte	255
	.byte	255
	.byte	1
	.uleb128 .Lcst_end7-.Lcst_begin7
.Lcst_begin7:
	.uleb128 .Ltmp82-.Lfunc_begin7
	.uleb128 .Ltmp83-.Ltmp82
	.uleb128 .Ltmp84-.Lfunc_begin7
	.byte	0
	.uleb128 .Ltmp83-.Lfunc_begin7
	.uleb128 .Lfunc_end23-.Ltmp83
	.byte	0
	.byte	0
.Lcst_end7:
	.p2align	2

	.section	.text._ZN4core3ptr13drop_in_place17h451c6c51a559d151E,"ax",@progbits
	.p2align	4, 0x90
	.type	_ZN4core3ptr13drop_in_place17h451c6c51a559d151E,@function
_ZN4core3ptr13drop_in_place17h451c6c51a559d151E:
	.cfi_startproc
	pushq	%r14
	.cfi_def_cfa_offset 16
	pushq	%rbx
	.cfi_def_cfa_offset 24
	pushq	%rax
	.cfi_def_cfa_offset 32
	.cfi_offset %rbx, -24
	.cfi_offset %r14, -16
	movq	%rdi, %rbx
	cmpb	$0, 8(%rdi)
	jne	.LBB24_4
	movq	(%rbx), %r14
	movq	_ZN3std9panicking11panic_count18GLOBAL_PANIC_COUNT17h3b25e77861be4659E(%rip), %rax
	testq	%rax, %rax
	jne	.LBB24_2
.LBB24_4:
	movq	(%rbx), %rax
	movq	(%rax), %rdi
	addq	$8, %rsp
	.cfi_def_cfa_offset 24
	popq	%rbx
	.cfi_def_cfa_offset 16
	popq	%r14
	.cfi_def_cfa_offset 8
	jmpq	*pthread_mutex_unlock@GOTPCREL(%rip)
.LBB24_2:
	.cfi_def_cfa_offset 32
	callq	_ZN3std9panicking11panic_count17is_zero_slow_path17h114aac63407c5996E
	testb	%al, %al
	jne	.LBB24_4
	movb	$1, 8(%r14)
	jmp	.LBB24_4
.Lfunc_end24:
	.size	_ZN4core3ptr13drop_in_place17h451c6c51a559d151E, .Lfunc_end24-_ZN4core3ptr13drop_in_place17h451c6c51a559d151E
	.cfi_endproc

	.section	.text._ZN4core3ptr13drop_in_place17h5962d2246f92be5eE,"ax",@progbits
	.p2align	4, 0x90
	.type	_ZN4core3ptr13drop_in_place17h5962d2246f92be5eE,@function
_ZN4core3ptr13drop_in_place17h5962d2246f92be5eE:
	.cfi_startproc
	pushq	%r14
	.cfi_def_cfa_offset 16
	pushq	%rbx
	.cfi_def_cfa_offset 24
	pushq	%rax
	.cfi_def_cfa_offset 32
	.cfi_offset %rbx, -24
	.cfi_offset %r14, -16
	movq	8(%rdi), %rdi
	testq	%rdi, %rdi
	je	.LBB25_3
	movq	free@GOTPCREL(%rip), %r14
	.p2align	4, 0x90
.LBB25_2:
	movq	(%rdi), %rbx
	callq	*%r14
	movq	%rbx, %rdi
	testq	%rbx, %rbx
	jne	.LBB25_2
.LBB25_3:
	addq	$8, %rsp
	.cfi_def_cfa_offset 24
	popq	%rbx
	.cfi_def_cfa_offset 16
	popq	%r14
	.cfi_def_cfa_offset 8
	retq
.Lfunc_end25:
	.size	_ZN4core3ptr13drop_in_place17h5962d2246f92be5eE, .Lfunc_end25-_ZN4core3ptr13drop_in_place17h5962d2246f92be5eE
	.cfi_endproc

	.section	.text._ZN4core3ptr13drop_in_place17h63d4492c02d6ef6bE,"ax",@progbits
	.p2align	4, 0x90
	.type	_ZN4core3ptr13drop_in_place17h63d4492c02d6ef6bE,@function
_ZN4core3ptr13drop_in_place17h63d4492c02d6ef6bE:
	.cfi_startproc
	movl	(%rdi), %eax
	orl	$2, %eax
	cmpl	$2, %eax
	jne	.LBB26_2
	retq
.LBB26_2:
	addq	$8, %rdi
	jmp	_ZN4core3ptr13drop_in_place17h43ac3631ab207fe0E
.Lfunc_end26:
	.size	_ZN4core3ptr13drop_in_place17h63d4492c02d6ef6bE, .Lfunc_end26-_ZN4core3ptr13drop_in_place17h63d4492c02d6ef6bE
	.cfi_endproc

	.section	.text._ZN4core3ptr13drop_in_place17h6f32fe250bbc628cE,"ax",@progbits
	.p2align	4, 0x90
	.type	_ZN4core3ptr13drop_in_place17h6f32fe250bbc628cE,@function
_ZN4core3ptr13drop_in_place17h6f32fe250bbc628cE:
	.cfi_startproc
	movq	(%rdi), %rax
	lock		subq	$1, (%rax)
	jne	.LBB27_1
	#MEMBARRIER
	jmp	_ZN5alloc4sync12Arc$LT$T$GT$9drop_slow17h1e82fdada470bc6dE
.LBB27_1:
	retq
.Lfunc_end27:
	.size	_ZN4core3ptr13drop_in_place17h6f32fe250bbc628cE, .Lfunc_end27-_ZN4core3ptr13drop_in_place17h6f32fe250bbc628cE
	.cfi_endproc

	.section	.text._ZN4core3ptr13drop_in_place17h97cc93119de6feb1E,"ax",@progbits
	.p2align	4, 0x90
	.type	_ZN4core3ptr13drop_in_place17h97cc93119de6feb1E,@function
_ZN4core3ptr13drop_in_place17h97cc93119de6feb1E:
	.cfi_startproc
	pushq	%rbx
	.cfi_def_cfa_offset 16
	.cfi_offset %rbx, -16
	movq	%rdi, %rbx
	movq	(%rdi), %rdi
	callq	*pthread_mutex_destroy@GOTPCREL(%rip)
	movq	(%rbx), %rdi
	callq	*free@GOTPCREL(%rip)
	movq	32(%rbx), %rax
	cmpq	$1, %rax
	je	.LBB28_2
	testq	%rax, %rax
	jne	.LBB28_4
.LBB28_2:
	movq	40(%rbx), %rax
	lock		subq	$1, (%rax)
	jne	.LBB28_4
	leaq	40(%rbx), %rdi
	#MEMBARRIER
	callq	_ZN5alloc4sync12Arc$LT$T$GT$9drop_slow17h1e82fdada470bc6dE
.LBB28_4:
	movq	56(%rbx), %rax
	testq	%rax, %rax
	je	.LBB28_7
	movq	48(%rbx), %rdi
	testq	%rdi, %rdi
	je	.LBB28_7
	movabsq	$1152921504606846975, %rcx
	andq	%rcx, %rax
	je	.LBB28_7
	popq	%rbx
	.cfi_def_cfa_offset 8
	jmpq	*free@GOTPCREL(%rip)
.LBB28_7:
	.cfi_def_cfa_offset 16
	popq	%rbx
	.cfi_def_cfa_offset 8
	retq
.Lfunc_end28:
	.size	_ZN4core3ptr13drop_in_place17h97cc93119de6feb1E, .Lfunc_end28-_ZN4core3ptr13drop_in_place17h97cc93119de6feb1E
	.cfi_endproc

	.section	.text._ZN4core3ptr13drop_in_place17ha063e275a20bc99aE,"ax",@progbits
	.p2align	4, 0x90
	.type	_ZN4core3ptr13drop_in_place17ha063e275a20bc99aE,@function
_ZN4core3ptr13drop_in_place17ha063e275a20bc99aE:
	.cfi_startproc
	movq	(%rdi), %rax
	testq	%rax, %rax
	je	.LBB29_2
	lock		subq	$1, (%rax)
	jne	.LBB29_2
	#MEMBARRIER
	jmp	_ZN5alloc4sync12Arc$LT$T$GT$9drop_slow17hcaa08d5bc0dd82c3E
.LBB29_2:
	retq
.Lfunc_end29:
	.size	_ZN4core3ptr13drop_in_place17ha063e275a20bc99aE, .Lfunc_end29-_ZN4core3ptr13drop_in_place17ha063e275a20bc99aE
	.cfi_endproc

	.section	.text._ZN4core3ptr13drop_in_place17ha1099a35ea508b21E,"ax",@progbits
	.p2align	4, 0x90
	.type	_ZN4core3ptr13drop_in_place17ha1099a35ea508b21E,@function
_ZN4core3ptr13drop_in_place17ha1099a35ea508b21E:
	.cfi_startproc
	jmp	_ZN4core3ptr13drop_in_place17h2f562d6787bbd004E
.Lfunc_end30:
	.size	_ZN4core3ptr13drop_in_place17ha1099a35ea508b21E, .Lfunc_end30-_ZN4core3ptr13drop_in_place17ha1099a35ea508b21E
	.cfi_endproc

	.section	.text._ZN4core3ptr13drop_in_place17ha99f28831a722aa8E,"ax",@progbits
	.p2align	4, 0x90
	.type	_ZN4core3ptr13drop_in_place17ha99f28831a722aa8E,@function
_ZN4core3ptr13drop_in_place17ha99f28831a722aa8E:
	.cfi_startproc
	movq	(%rdi), %rax
	testq	%rax, %rax
	je	.LBB31_2
	lock		subq	$1, (%rax)
	jne	.LBB31_2
	#MEMBARRIER
	jmp	_ZN5alloc4sync12Arc$LT$T$GT$9drop_slow17h1e82fdada470bc6dE
.LBB31_2:
	retq
.Lfunc_end31:
	.size	_ZN4core3ptr13drop_in_place17ha99f28831a722aa8E, .Lfunc_end31-_ZN4core3ptr13drop_in_place17ha99f28831a722aa8E
	.cfi_endproc

	.section	.text._ZN4core3ptr13drop_in_place17hab28c41aa9648dd1E,"ax",@progbits
	.p2align	4, 0x90
	.type	_ZN4core3ptr13drop_in_place17hab28c41aa9648dd1E,@function
_ZN4core3ptr13drop_in_place17hab28c41aa9648dd1E:
	.cfi_startproc
	movq	(%rdi), %rax
	lock		subq	$1, (%rax)
	jne	.LBB32_1
	#MEMBARRIER
	jmp	_ZN5alloc4sync12Arc$LT$T$GT$9drop_slow17h4362465d5653348dE
.LBB32_1:
	retq
.Lfunc_end32:
	.size	_ZN4core3ptr13drop_in_place17hab28c41aa9648dd1E, .Lfunc_end32-_ZN4core3ptr13drop_in_place17hab28c41aa9648dd1E
	.cfi_endproc

	.section	.text._ZN4core3ptr13drop_in_place17hb6fa37f944447a1bE,"ax",@progbits
	.p2align	4, 0x90
	.type	_ZN4core3ptr13drop_in_place17hb6fa37f944447a1bE,@function
_ZN4core3ptr13drop_in_place17hb6fa37f944447a1bE:
	.cfi_startproc
	movq	(%rdi), %rax
	lock		subq	$1, (%rax)
	jne	.LBB33_1
	#MEMBARRIER
	jmp	_ZN5alloc4sync12Arc$LT$T$GT$9drop_slow17h90a9d120b17fc657E
.LBB33_1:
	retq
.Lfunc_end33:
	.size	_ZN4core3ptr13drop_in_place17hb6fa37f944447a1bE, .Lfunc_end33-_ZN4core3ptr13drop_in_place17hb6fa37f944447a1bE
	.cfi_endproc

	.section	.text._ZN4core3ptr13drop_in_place17hce93787aafb6f6d7E,"ax",@progbits
	.p2align	4, 0x90
	.type	_ZN4core3ptr13drop_in_place17hce93787aafb6f6d7E,@function
_ZN4core3ptr13drop_in_place17hce93787aafb6f6d7E:
.Lfunc_begin8:
	.cfi_startproc
	.cfi_personality 155, DW.ref.rust_eh_personality
	.cfi_lsda 27, .Lexception8
	pushq	%r14
	.cfi_def_cfa_offset 16
	pushq	%rbx
	.cfi_def_cfa_offset 24
	pushq	%rax
	.cfi_def_cfa_offset 32
	.cfi_offset %rbx, -24
	.cfi_offset %r14, -16
	movq	%rdi, %rbx
	movq	(%rdi), %rax
	lock		subq	$1, (%rax)
	jne	.LBB34_2
	#MEMBARRIER
	movq	%rbx, %rdi
	callq	_ZN5alloc4sync12Arc$LT$T$GT$9drop_slow17h90a9d120b17fc657E
.LBB34_2:
	movq	8(%rbx), %rax
	testq	%rax, %rax
	je	.LBB34_5
	lock		subq	$1, (%rax)
	jne	.LBB34_5
	leaq	8(%rbx), %rdi
	#MEMBARRIER
	callq	_ZN5alloc4sync12Arc$LT$T$GT$9drop_slow17hcaa08d5bc0dd82c3E
.LBB34_5:
	leaq	16(%rbx), %rdi
.Ltmp85:
	callq	_ZN4core3ptr13drop_in_place17h2f562d6787bbd004E
.Ltmp86:
	movq	40(%rbx), %rax
	lock		subq	$1, (%rax)
	jne	.LBB34_9
	addq	$40, %rbx
	#MEMBARRIER
	movq	%rbx, %rdi
	addq	$8, %rsp
	.cfi_def_cfa_offset 24
	popq	%rbx
	.cfi_def_cfa_offset 16
	popq	%r14
	.cfi_def_cfa_offset 8
	jmp	_ZN5alloc4sync12Arc$LT$T$GT$9drop_slow17h4362465d5653348dE
.LBB34_9:
	.cfi_def_cfa_offset 32
	addq	$8, %rsp
	.cfi_def_cfa_offset 24
	popq	%rbx
	.cfi_def_cfa_offset 16
	popq	%r14
	.cfi_def_cfa_offset 8
	retq
.LBB34_8:
	.cfi_def_cfa_offset 32
.Ltmp87:
	movq	%rax, %r14
	addq	$40, %rbx
	movq	%rbx, %rdi
	callq	_ZN4core3ptr13drop_in_place17hab28c41aa9648dd1E
	movq	%r14, %rdi
	callq	_Unwind_Resume@PLT
	ud2
.Lfunc_end34:
	.size	_ZN4core3ptr13drop_in_place17hce93787aafb6f6d7E, .Lfunc_end34-_ZN4core3ptr13drop_in_place17hce93787aafb6f6d7E
	.cfi_endproc
	.section	.gcc_except_table,"a",@progbits
	.p2align	2
GCC_except_table34:
.Lexception8:
	.byte	255
	.byte	255
	.byte	1
	.uleb128 .Lcst_end8-.Lcst_begin8
.Lcst_begin8:
	.uleb128 .Ltmp85-.Lfunc_begin8
	.uleb128 .Ltmp86-.Ltmp85
	.uleb128 .Ltmp87-.Lfunc_begin8
	.byte	0
	.uleb128 .Ltmp86-.Lfunc_begin8
	.uleb128 .Lfunc_end34-.Ltmp86
	.byte	0
	.byte	0
.Lcst_end8:
	.p2align	2

	.section	.text._ZN4core3ptr13drop_in_place17hd5bbf6de6cfb2484E,"ax",@progbits
	.p2align	4, 0x90
	.type	_ZN4core3ptr13drop_in_place17hd5bbf6de6cfb2484E,@function
_ZN4core3ptr13drop_in_place17hd5bbf6de6cfb2484E:
	.cfi_startproc
	movl	(%rdi), %eax
	andl	$6, %eax
	cmpl	$4, %eax
	jne	.LBB35_2
	retq
.LBB35_2:
	jmp	_ZN4core3ptr13drop_in_place17h43ac3631ab207fe0E
.Lfunc_end35:
	.size	_ZN4core3ptr13drop_in_place17hd5bbf6de6cfb2484E, .Lfunc_end35-_ZN4core3ptr13drop_in_place17hd5bbf6de6cfb2484E
	.cfi_endproc

	.section	.text._ZN4core3ptr13drop_in_place17hff5069f82bdca40cE,"ax",@progbits
	.p2align	4, 0x90
	.type	_ZN4core3ptr13drop_in_place17hff5069f82bdca40cE,@function
_ZN4core3ptr13drop_in_place17hff5069f82bdca40cE:
.Lfunc_begin9:
	.cfi_startproc
	.cfi_personality 155, DW.ref.rust_eh_personality
	.cfi_lsda 27, .Lexception9
	pushq	%r14
	.cfi_def_cfa_offset 16
	pushq	%rbx
	.cfi_def_cfa_offset 24
	pushq	%rax
	.cfi_def_cfa_offset 32
	.cfi_offset %rbx, -24
	.cfi_offset %r14, -16
	cmpq	$0, (%rdi)
	je	.LBB36_12
	movq	%rdi, %r14
	leaq	8(%rdi), %rbx
.Ltmp88:
	movq	%rbx, %rdi
	callq	_ZN76_$LT$std..sync..mpsc..Receiver$LT$T$GT$$u20$as$u20$core..ops..drop..Drop$GT$4drop17hcc99b8b2e8415a98E
.Ltmp89:
	movq	(%rbx), %rax
	cmpq	$2, %rax
	je	.LBB36_9
	cmpl	$1, %eax
	je	.LBB36_7
	testq	%rax, %rax
	jne	.LBB36_11
	movq	16(%r14), %rax
	lock		subq	$1, (%rax)
	jne	.LBB36_12
	addq	$16, %r14
	#MEMBARRIER
	movq	%r14, %rdi
	addq	$8, %rsp
	.cfi_def_cfa_offset 24
	popq	%rbx
	.cfi_def_cfa_offset 16
	popq	%r14
	.cfi_def_cfa_offset 8
	jmp	_ZN5alloc4sync12Arc$LT$T$GT$9drop_slow17h960c8f7c6a960751E
.LBB36_9:
	.cfi_def_cfa_offset 32
	movq	16(%r14), %rax
	lock		subq	$1, (%rax)
	jne	.LBB36_12
	addq	$16, %r14
	#MEMBARRIER
	movq	%r14, %rdi
	addq	$8, %rsp
	.cfi_def_cfa_offset 24
	popq	%rbx
	.cfi_def_cfa_offset 16
	popq	%r14
	.cfi_def_cfa_offset 8
	jmp	_ZN5alloc4sync12Arc$LT$T$GT$9drop_slow17h1355cbf8e875e2ddE
.LBB36_7:
	.cfi_def_cfa_offset 32
	movq	16(%r14), %rax
	lock		subq	$1, (%rax)
	jne	.LBB36_12
	addq	$16, %r14
	#MEMBARRIER
	movq	%r14, %rdi
	addq	$8, %rsp
	.cfi_def_cfa_offset 24
	popq	%rbx
	.cfi_def_cfa_offset 16
	popq	%r14
	.cfi_def_cfa_offset 8
	jmp	_ZN5alloc4sync12Arc$LT$T$GT$9drop_slow17h6c51691a7d09bc61E
.LBB36_11:
	.cfi_def_cfa_offset 32
	movq	16(%r14), %rax
	lock		subq	$1, (%rax)
	jne	.LBB36_12
	addq	$16, %r14
	#MEMBARRIER
	movq	%r14, %rdi
	addq	$8, %rsp
	.cfi_def_cfa_offset 24
	popq	%rbx
	.cfi_def_cfa_offset 16
	popq	%r14
	.cfi_def_cfa_offset 8
	jmp	_ZN5alloc4sync12Arc$LT$T$GT$9drop_slow17hf1af2c8314bcc9e4E
.LBB36_12:
	.cfi_def_cfa_offset 32
	addq	$8, %rsp
	.cfi_def_cfa_offset 24
	popq	%rbx
	.cfi_def_cfa_offset 16
	popq	%r14
	.cfi_def_cfa_offset 8
	retq
.LBB36_13:
	.cfi_def_cfa_offset 32
.Ltmp90:
	movq	%rax, %r14
	movq	%rbx, %rdi
	callq	_ZN4core3ptr13drop_in_place17h36fd28f17d6dce22E
	movq	%r14, %rdi
	callq	_Unwind_Resume@PLT
	ud2
.Lfunc_end36:
	.size	_ZN4core3ptr13drop_in_place17hff5069f82bdca40cE, .Lfunc_end36-_ZN4core3ptr13drop_in_place17hff5069f82bdca40cE
	.cfi_endproc
	.section	.gcc_except_table,"a",@progbits
	.p2align	2
GCC_except_table36:
.Lexception9:
	.byte	255
	.byte	255
	.byte	1
	.uleb128 .Lcst_end9-.Lcst_begin9
.Lcst_begin9:
	.uleb128 .Ltmp88-.Lfunc_begin9
	.uleb128 .Ltmp89-.Ltmp88
	.uleb128 .Ltmp90-.Lfunc_begin9
	.byte	0
	.uleb128 .Ltmp89-.Lfunc_begin9
	.uleb128 .Lfunc_end36-.Ltmp89
	.byte	0
	.byte	0
.Lcst_end9:
	.p2align	2

	.section	".text._ZN5alloc4sync12Arc$LT$T$GT$9drop_slow17h1355cbf8e875e2ddE","ax",@progbits
	.p2align	4, 0x90
	.type	_ZN5alloc4sync12Arc$LT$T$GT$9drop_slow17h1355cbf8e875e2ddE,@function
_ZN5alloc4sync12Arc$LT$T$GT$9drop_slow17h1355cbf8e875e2ddE:
.Lfunc_begin10:
	.cfi_startproc
	.cfi_personality 155, DW.ref.rust_eh_personality
	.cfi_lsda 27, .Lexception10
	pushq	%r15
	.cfi_def_cfa_offset 16
	pushq	%r14
	.cfi_def_cfa_offset 24
	pushq	%r12
	.cfi_def_cfa_offset 32
	pushq	%rbx
	.cfi_def_cfa_offset 40
	subq	$104, %rsp
	.cfi_def_cfa_offset 144
	.cfi_offset %rbx, -40
	.cfi_offset %r12, -32
	.cfi_offset %r14, -24
	.cfi_offset %r15, -16
	movq	(%rdi), %r12
	leaq	16(%r12), %r14
	movq	32(%r12), %rax
	movq	%rax, (%rsp)
	movabsq	$-9223372036854775808, %rcx
	cmpq	%rcx, %rax
	jne	.LBB37_4
	movq	48(%r12), %rax
	movq	%rax, (%rsp)
	testq	%rax, %rax
	jne	.LBB37_6
	movq	56(%r12), %rax
	movq	%rax, (%rsp)
	testq	%rax, %rax
	jne	.LBB37_3
	movq	%rdi, %r15
	movq	24(%r12), %rdi
	testq	%rdi, %rdi
	je	.LBB37_11
	movq	free@GOTPCREL(%rip), %r14
	.p2align	4, 0x90
.LBB37_10:
	movq	(%rdi), %rbx
	callq	*%r14
	movq	%rbx, %rdi
	testq	%rbx, %rbx
	jne	.LBB37_10
.LBB37_11:
	movq	72(%r12), %rdi
	callq	*pthread_mutex_destroy@GOTPCREL(%rip)
	movq	72(%r12), %rdi
	callq	*free@GOTPCREL(%rip)
	movq	(%r15), %rdi
	cmpq	$-1, %rdi
	je	.LBB37_13
	lock		subq	$1, 8(%rdi)
	jne	.LBB37_13
	#MEMBARRIER
	addq	$104, %rsp
	.cfi_def_cfa_offset 40
	popq	%rbx
	.cfi_def_cfa_offset 32
	popq	%r12
	.cfi_def_cfa_offset 24
	popq	%r14
	.cfi_def_cfa_offset 16
	popq	%r15
	.cfi_def_cfa_offset 8
	jmpq	*free@GOTPCREL(%rip)
.LBB37_13:
	.cfi_def_cfa_offset 144
	addq	$104, %rsp
	.cfi_def_cfa_offset 40
	popq	%rbx
	.cfi_def_cfa_offset 32
	popq	%r12
	.cfi_def_cfa_offset 24
	popq	%r14
	.cfi_def_cfa_offset 16
	popq	%r15
	.cfi_def_cfa_offset 8
	retq
.LBB37_4:
	.cfi_def_cfa_offset 144
	movq	%rsp, %rax
	movq	%rax, 8(%rsp)
	leaq	.L__unnamed_32(%rip), %rax
	movq	%rax, 16(%rsp)
	leaq	8(%rsp), %rax
	movq	%rax, 24(%rsp)
	leaq	_ZN42_$LT$$RF$T$u20$as$u20$core..fmt..Debug$GT$3fmt17h69a6518eea210ae1E(%rip), %rax
	movq	%rax, 32(%rsp)
	leaq	16(%rsp), %rcx
	movq	%rcx, 40(%rsp)
	movq	%rax, 48(%rsp)
	leaq	anon.44270d117240652e2c29b279aed00257.126.llvm.3683828415613454216(%rip), %rax
	movq	%rax, 56(%rsp)
	movq	$3, 64(%rsp)
	movq	$0, 72(%rsp)
	leaq	24(%rsp), %rax
	movq	%rax, 88(%rsp)
	movq	$2, 96(%rsp)
.Ltmp91:
	leaq	.L__unnamed_33(%rip), %rsi
	leaq	56(%rsp), %rdi
	callq	_ZN4core9panicking9panic_fmt17h88d1befd03709389E
.Ltmp92:
	jmp	.LBB37_5
.LBB37_6:
	movq	%rsp, %rax
	movq	%rax, 8(%rsp)
	leaq	.L__unnamed_34(%rip), %rax
	movq	%rax, 16(%rsp)
	leaq	8(%rsp), %rax
	movq	%rax, 24(%rsp)
	leaq	_ZN42_$LT$$RF$T$u20$as$u20$core..fmt..Debug$GT$3fmt17h19aace9ba3b20d23E(%rip), %rax
	movq	%rax, 32(%rsp)
	leaq	16(%rsp), %rcx
	movq	%rcx, 40(%rsp)
	movq	%rax, 48(%rsp)
	leaq	anon.44270d117240652e2c29b279aed00257.126.llvm.3683828415613454216(%rip), %rax
	movq	%rax, 56(%rsp)
	movq	$3, 64(%rsp)
	movq	$0, 72(%rsp)
	leaq	24(%rsp), %rax
	movq	%rax, 88(%rsp)
	movq	$2, 96(%rsp)
.Ltmp93:
	leaq	.L__unnamed_35(%rip), %rsi
	leaq	56(%rsp), %rdi
	callq	_ZN4core9panicking9panic_fmt17h88d1befd03709389E
.Ltmp94:
	jmp	.LBB37_5
.LBB37_3:
	movq	%rsp, %rax
	movq	%rax, 8(%rsp)
	leaq	.L__unnamed_34(%rip), %rax
	movq	%rax, 16(%rsp)
	leaq	8(%rsp), %rax
	movq	%rax, 24(%rsp)
	leaq	_ZN42_$LT$$RF$T$u20$as$u20$core..fmt..Debug$GT$3fmt17h19aace9ba3b20d23E(%rip), %rax
	movq	%rax, 32(%rsp)
	leaq	16(%rsp), %rcx
	movq	%rcx, 40(%rsp)
	movq	%rax, 48(%rsp)
	leaq	anon.44270d117240652e2c29b279aed00257.126.llvm.3683828415613454216(%rip), %rax
	movq	%rax, 56(%rsp)
	movq	$3, 64(%rsp)
	movq	$0, 72(%rsp)
	leaq	24(%rsp), %rax
	movq	%rax, 88(%rsp)
	movq	$2, 96(%rsp)
.Ltmp95:
	leaq	.L__unnamed_36(%rip), %rsi
	leaq	56(%rsp), %rdi
	callq	_ZN4core9panicking9panic_fmt17h88d1befd03709389E
.Ltmp96:
.LBB37_5:
	ud2
.LBB37_7:
.Ltmp97:
	movq	%rax, %r15
	movq	%r14, %rdi
	callq	_ZN4core3ptr13drop_in_place17h5962d2246f92be5eE
	addq	$72, %r12
	movq	%r12, %rdi
	callq	_ZN4core3ptr13drop_in_place17h4128ccba4f4cf9feE
	movq	%r15, %rdi
	callq	_Unwind_Resume@PLT
	ud2
.Lfunc_end37:
	.size	_ZN5alloc4sync12Arc$LT$T$GT$9drop_slow17h1355cbf8e875e2ddE, .Lfunc_end37-_ZN5alloc4sync12Arc$LT$T$GT$9drop_slow17h1355cbf8e875e2ddE
	.cfi_endproc
	.section	.gcc_except_table,"a",@progbits
	.p2align	2
GCC_except_table37:
.Lexception10:
	.byte	255
	.byte	255
	.byte	1
	.uleb128 .Lcst_end10-.Lcst_begin10
.Lcst_begin10:
	.uleb128 .Lfunc_begin10-.Lfunc_begin10
	.uleb128 .Ltmp91-.Lfunc_begin10
	.byte	0
	.byte	0
	.uleb128 .Ltmp91-.Lfunc_begin10
	.uleb128 .Ltmp96-.Ltmp91
	.uleb128 .Ltmp97-.Lfunc_begin10
	.byte	0
	.uleb128 .Ltmp96-.Lfunc_begin10
	.uleb128 .Lfunc_end37-.Ltmp96
	.byte	0
	.byte	0
.Lcst_end10:
	.p2align	2

	.section	".text._ZN5alloc4sync12Arc$LT$T$GT$9drop_slow17h1e82fdada470bc6dE","ax",@progbits
	.p2align	4, 0x90
	.type	_ZN5alloc4sync12Arc$LT$T$GT$9drop_slow17h1e82fdada470bc6dE,@function
_ZN5alloc4sync12Arc$LT$T$GT$9drop_slow17h1e82fdada470bc6dE:
	.cfi_startproc
	pushq	%rbx
	.cfi_def_cfa_offset 16
	.cfi_offset %rbx, -16
	movq	%rdi, %rbx
	movq	(%rdi), %rdi
	movq	16(%rdi), %rax
	lock		subq	$1, (%rax)
	jne	.LBB38_2
	addq	$16, %rdi
	#MEMBARRIER
	callq	_ZN5alloc4sync12Arc$LT$T$GT$9drop_slow17h90a9d120b17fc657E
.LBB38_2:
	movq	(%rbx), %rdi
	cmpq	$-1, %rdi
	je	.LBB38_4
	lock		subq	$1, 8(%rdi)
	jne	.LBB38_4
	#MEMBARRIER
	popq	%rbx
	.cfi_def_cfa_offset 8
	jmpq	*free@GOTPCREL(%rip)
.LBB38_4:
	.cfi_def_cfa_offset 16
	popq	%rbx
	.cfi_def_cfa_offset 8
	retq
.Lfunc_end38:
	.size	_ZN5alloc4sync12Arc$LT$T$GT$9drop_slow17h1e82fdada470bc6dE, .Lfunc_end38-_ZN5alloc4sync12Arc$LT$T$GT$9drop_slow17h1e82fdada470bc6dE
	.cfi_endproc

	.section	".text._ZN5alloc4sync12Arc$LT$T$GT$9drop_slow17h4362465d5653348dE","ax",@progbits
	.p2align	4, 0x90
	.type	_ZN5alloc4sync12Arc$LT$T$GT$9drop_slow17h4362465d5653348dE,@function
_ZN5alloc4sync12Arc$LT$T$GT$9drop_slow17h4362465d5653348dE:
.Lfunc_begin11:
	.cfi_startproc
	.cfi_personality 155, DW.ref.rust_eh_personality
	.cfi_lsda 27, .Lexception11
	pushq	%r14
	.cfi_def_cfa_offset 16
	pushq	%rbx
	.cfi_def_cfa_offset 24
	pushq	%rax
	.cfi_def_cfa_offset 32
	.cfi_offset %rbx, -24
	.cfi_offset %r14, -16
	movq	(%rdi), %rbx
	movl	16(%rbx), %eax
	orl	$2, %eax
	cmpl	$2, %eax
	jne	.LBB39_1
	cmpq	$-1, %rbx
	jne	.LBB39_6
	jmp	.LBB39_7
.LBB39_1:
	movq	%rdi, %r14
	movq	24(%rbx), %rdi
	movq	32(%rbx), %rax
.Ltmp98:
	callq	*(%rax)
.Ltmp99:
	movq	32(%rbx), %rax
	cmpq	$0, 8(%rax)
	je	.LBB39_4
	movq	24(%rbx), %rdi
	callq	*free@GOTPCREL(%rip)
.LBB39_4:
	movq	(%r14), %rbx
	cmpq	$-1, %rbx
	je	.LBB39_7
.LBB39_6:
	lock		subq	$1, 8(%rbx)
	jne	.LBB39_7
	#MEMBARRIER
	movq	%rbx, %rdi
	addq	$8, %rsp
	.cfi_def_cfa_offset 24
	popq	%rbx
	.cfi_def_cfa_offset 16
	popq	%r14
	.cfi_def_cfa_offset 8
	jmpq	*free@GOTPCREL(%rip)
.LBB39_7:
	.cfi_def_cfa_offset 32
	addq	$8, %rsp
	.cfi_def_cfa_offset 24
	popq	%rbx
	.cfi_def_cfa_offset 16
	popq	%r14
	.cfi_def_cfa_offset 8
	retq
.LBB39_8:
	.cfi_def_cfa_offset 32
.Ltmp100:
	movq	%rax, %r14
	movq	24(%rbx), %rdi
	movq	32(%rbx), %rax
	movq	8(%rax), %rsi
	callq	_ZN5alloc5alloc8box_free17h292378dea4494778E
	movq	%r14, %rdi
	callq	_Unwind_Resume@PLT
	ud2
.Lfunc_end39:
	.size	_ZN5alloc4sync12Arc$LT$T$GT$9drop_slow17h4362465d5653348dE, .Lfunc_end39-_ZN5alloc4sync12Arc$LT$T$GT$9drop_slow17h4362465d5653348dE
	.cfi_endproc
	.section	.gcc_except_table,"a",@progbits
	.p2align	2
GCC_except_table39:
.Lexception11:
	.byte	255
	.byte	255
	.byte	1
	.uleb128 .Lcst_end11-.Lcst_begin11
.Lcst_begin11:
	.uleb128 .Ltmp98-.Lfunc_begin11
	.uleb128 .Ltmp99-.Ltmp98
	.uleb128 .Ltmp100-.Lfunc_begin11
	.byte	0
	.uleb128 .Ltmp99-.Lfunc_begin11
	.uleb128 .Lfunc_end39-.Ltmp99
	.byte	0
	.byte	0
.Lcst_end11:
	.p2align	2

	.section	".text._ZN5alloc4sync12Arc$LT$T$GT$9drop_slow17h6c51691a7d09bc61E","ax",@progbits
	.p2align	4, 0x90
	.type	_ZN5alloc4sync12Arc$LT$T$GT$9drop_slow17h6c51691a7d09bc61E,@function
_ZN5alloc4sync12Arc$LT$T$GT$9drop_slow17h6c51691a7d09bc61E:
.Lfunc_begin12:
	.cfi_startproc
	.cfi_personality 155, DW.ref.rust_eh_personality
	.cfi_lsda 27, .Lexception12
	pushq	%r15
	.cfi_def_cfa_offset 16
	pushq	%r14
	.cfi_def_cfa_offset 24
	pushq	%r12
	.cfi_def_cfa_offset 32
	pushq	%rbx
	.cfi_def_cfa_offset 40
	subq	$104, %rsp
	.cfi_def_cfa_offset 144
	.cfi_offset %rbx, -40
	.cfi_offset %r12, -32
	.cfi_offset %r14, -24
	.cfi_offset %r15, -16
	movq	(%rdi), %rax
	leaq	64(%rax), %r14
	movq	152(%rax), %rcx
	movq	%rcx, (%rsp)
	movabsq	$-9223372036854775808, %rdx
	cmpq	%rdx, %rcx
	jne	.LBB40_3
	movq	160(%rax), %rcx
	movq	%rcx, (%rsp)
	testq	%rcx, %rcx
	jne	.LBB40_2
	movq	%rdi, %r15
	movq	136(%rax), %rbx
	testq	%rbx, %rbx
	je	.LBB40_10
	movq	free@GOTPCREL(%rip), %r14
	jmp	.LBB40_7
	.p2align	4, 0x90
.LBB40_9:
	movq	%rbx, %rdi
	callq	*%r14
	movq	%r12, %rbx
	testq	%r12, %r12
	je	.LBB40_10
.LBB40_7:
	movq	24(%rbx), %r12
	movl	(%rbx), %eax
	orl	$2, %eax
	cmpl	$2, %eax
	je	.LBB40_9
	leaq	8(%rbx), %rdi
.Ltmp106:
	callq	_ZN4core3ptr13drop_in_place17h43ac3631ab207fe0E
.Ltmp107:
	jmp	.LBB40_9
.LBB40_10:
	movq	(%r15), %rdi
	cmpq	$-1, %rdi
	je	.LBB40_12
	lock		subq	$1, 8(%rdi)
	jne	.LBB40_12
	#MEMBARRIER
	addq	$104, %rsp
	.cfi_def_cfa_offset 40
	popq	%rbx
	.cfi_def_cfa_offset 32
	popq	%r12
	.cfi_def_cfa_offset 24
	popq	%r14
	.cfi_def_cfa_offset 16
	popq	%r15
	.cfi_def_cfa_offset 8
	jmpq	*free@GOTPCREL(%rip)
.LBB40_12:
	.cfi_def_cfa_offset 144
	addq	$104, %rsp
	.cfi_def_cfa_offset 40
	popq	%rbx
	.cfi_def_cfa_offset 32
	popq	%r12
	.cfi_def_cfa_offset 24
	popq	%r14
	.cfi_def_cfa_offset 16
	popq	%r15
	.cfi_def_cfa_offset 8
	retq
.LBB40_3:
	.cfi_def_cfa_offset 144
	movq	%rsp, %rax
	movq	%rax, 8(%rsp)
	leaq	.L__unnamed_32(%rip), %rax
	movq	%rax, 16(%rsp)
	leaq	8(%rsp), %rax
	movq	%rax, 24(%rsp)
	leaq	_ZN42_$LT$$RF$T$u20$as$u20$core..fmt..Debug$GT$3fmt17h69a6518eea210ae1E(%rip), %rax
	movq	%rax, 32(%rsp)
	leaq	16(%rsp), %rcx
	movq	%rcx, 40(%rsp)
	movq	%rax, 48(%rsp)
	leaq	anon.44270d117240652e2c29b279aed00257.126.llvm.3683828415613454216(%rip), %rax
	movq	%rax, 56(%rsp)
	movq	$3, 64(%rsp)
	movq	$0, 72(%rsp)
	leaq	24(%rsp), %rax
	movq	%rax, 88(%rsp)
	movq	$2, 96(%rsp)
.Ltmp101:
	leaq	.L__unnamed_37(%rip), %rsi
	leaq	56(%rsp), %rdi
	callq	_ZN4core9panicking9panic_fmt17h88d1befd03709389E
.Ltmp102:
	jmp	.LBB40_4
.LBB40_2:
	movq	%rsp, %rax
	movq	%rax, 8(%rsp)
	leaq	.L__unnamed_34(%rip), %rax
	movq	%rax, 16(%rsp)
	leaq	8(%rsp), %rax
	movq	%rax, 24(%rsp)
	leaq	_ZN42_$LT$$RF$T$u20$as$u20$core..fmt..Debug$GT$3fmt17h19aace9ba3b20d23E(%rip), %rax
	movq	%rax, 32(%rsp)
	leaq	16(%rsp), %rcx
	movq	%rcx, 40(%rsp)
	movq	%rax, 48(%rsp)
	leaq	anon.44270d117240652e2c29b279aed00257.126.llvm.3683828415613454216(%rip), %rax
	movq	%rax, 56(%rsp)
	movq	$3, 64(%rsp)
	movq	$0, 72(%rsp)
	leaq	24(%rsp), %rax
	movq	%rax, 88(%rsp)
	movq	$2, 96(%rsp)
.Ltmp103:
	leaq	.L__unnamed_38(%rip), %rsi
	leaq	56(%rsp), %rdi
	callq	_ZN4core9panicking9panic_fmt17h88d1befd03709389E
.Ltmp104:
.LBB40_4:
	ud2
.LBB40_13:
.Ltmp105:
	movq	%rax, %r15
	movq	%r14, %rdi
	callq	_ZN4core3ptr13drop_in_place17h05c0638cac95cb3eE
	jmp	.LBB40_14
.LBB40_15:
.Ltmp108:
	movq	%rax, %r15
	movq	%rbx, %rdi
	callq	_ZN5alloc5alloc8box_free17h3288cca7f93057b7E.llvm.12602067952453011377
.LBB40_14:
	movq	%r15, %rdi
	callq	_Unwind_Resume@PLT
	ud2
.Lfunc_end40:
	.size	_ZN5alloc4sync12Arc$LT$T$GT$9drop_slow17h6c51691a7d09bc61E, .Lfunc_end40-_ZN5alloc4sync12Arc$LT$T$GT$9drop_slow17h6c51691a7d09bc61E
	.cfi_endproc
	.section	.gcc_except_table,"a",@progbits
	.p2align	2
GCC_except_table40:
.Lexception12:
	.byte	255
	.byte	255
	.byte	1
	.uleb128 .Lcst_end12-.Lcst_begin12
.Lcst_begin12:
	.uleb128 .Lfunc_begin12-.Lfunc_begin12
	.uleb128 .Ltmp106-.Lfunc_begin12
	.byte	0
	.byte	0
	.uleb128 .Ltmp106-.Lfunc_begin12
	.uleb128 .Ltmp107-.Ltmp106
	.uleb128 .Ltmp108-.Lfunc_begin12
	.byte	0
	.uleb128 .Ltmp101-.Lfunc_begin12
	.uleb128 .Ltmp104-.Ltmp101
	.uleb128 .Ltmp105-.Lfunc_begin12
	.byte	0
	.uleb128 .Ltmp104-.Lfunc_begin12
	.uleb128 .Lfunc_end40-.Ltmp104
	.byte	0
	.byte	0
.Lcst_end12:
	.p2align	2

	.section	".text._ZN5alloc4sync12Arc$LT$T$GT$9drop_slow17h960c8f7c6a960751E","ax",@progbits
	.p2align	4, 0x90
	.type	_ZN5alloc4sync12Arc$LT$T$GT$9drop_slow17h960c8f7c6a960751E,@function
_ZN5alloc4sync12Arc$LT$T$GT$9drop_slow17h960c8f7c6a960751E:
.Lfunc_begin13:
	.cfi_startproc
	.cfi_personality 155, DW.ref.rust_eh_personality
	.cfi_lsda 27, .Lexception13
	pushq	%r14
	.cfi_def_cfa_offset 16
	pushq	%rbx
	.cfi_def_cfa_offset 24
	subq	$104, %rsp
	.cfi_def_cfa_offset 128
	.cfi_offset %rbx, -24
	.cfi_offset %r14, -16
	movq	(%rdi), %r14
	movq	16(%r14), %rax
	movq	%rax, (%rsp)
	cmpq	$2, %rax
	jne	.LBB41_1
	movq	%rdi, %rbx
	movl	40(%r14), %eax
	andl	$6, %eax
	cmpl	$4, %eax
	je	.LBB41_6
	addq	$40, %r14
	movq	%r14, %rdi
	callq	_ZN4core3ptr13drop_in_place17h43ac3631ab207fe0E
.LBB41_6:
	movq	(%rbx), %rdi
	cmpq	$-1, %rdi
	je	.LBB41_8
	lock		subq	$1, 8(%rdi)
	jne	.LBB41_8
	#MEMBARRIER
	addq	$104, %rsp
	.cfi_def_cfa_offset 24
	popq	%rbx
	.cfi_def_cfa_offset 16
	popq	%r14
	.cfi_def_cfa_offset 8
	jmpq	*free@GOTPCREL(%rip)
.LBB41_8:
	.cfi_def_cfa_offset 128
	addq	$104, %rsp
	.cfi_def_cfa_offset 24
	popq	%rbx
	.cfi_def_cfa_offset 16
	popq	%r14
	.cfi_def_cfa_offset 8
	retq
.LBB41_1:
	.cfi_def_cfa_offset 128
	movq	%rsp, %rax
	movq	%rax, 8(%rsp)
	leaq	.Lanon.78e977b96a0d72b929ec10a1bff3500a.56(%rip), %rax
	movq	%rax, 16(%rsp)
	leaq	8(%rsp), %rax
	movq	%rax, 24(%rsp)
	leaq	_ZN42_$LT$$RF$T$u20$as$u20$core..fmt..Debug$GT$3fmt17h19aace9ba3b20d23E(%rip), %rax
	movq	%rax, 32(%rsp)
	leaq	16(%rsp), %rcx
	movq	%rcx, 40(%rsp)
	movq	%rax, 48(%rsp)
	leaq	anon.44270d117240652e2c29b279aed00257.126.llvm.3683828415613454216(%rip), %rax
	movq	%rax, 56(%rsp)
	movq	$3, 64(%rsp)
	movq	$0, 72(%rsp)
	leaq	24(%rsp), %rax
	movq	%rax, 88(%rsp)
	movq	$2, 96(%rsp)
.Ltmp109:
	leaq	.L__unnamed_39(%rip), %rsi
	leaq	56(%rsp), %rdi
	callq	_ZN4core9panicking9panic_fmt17h88d1befd03709389E
.Ltmp110:
	ud2
.LBB41_3:
.Ltmp111:
	movq	%rax, %rbx
	addq	$40, %r14
	movq	%r14, %rdi
	callq	_ZN4core3ptr13drop_in_place17hd5bbf6de6cfb2484E
	movq	%rbx, %rdi
	callq	_Unwind_Resume@PLT
	ud2
.Lfunc_end41:
	.size	_ZN5alloc4sync12Arc$LT$T$GT$9drop_slow17h960c8f7c6a960751E, .Lfunc_end41-_ZN5alloc4sync12Arc$LT$T$GT$9drop_slow17h960c8f7c6a960751E
	.cfi_endproc
	.section	.gcc_except_table,"a",@progbits
	.p2align	2
GCC_except_table41:
.Lexception13:
	.byte	255
	.byte	255
	.byte	1
	.uleb128 .Lcst_end13-.Lcst_begin13
.Lcst_begin13:
	.uleb128 .Lfunc_begin13-.Lfunc_begin13
	.uleb128 .Ltmp109-.Lfunc_begin13
	.byte	0
	.byte	0
	.uleb128 .Ltmp109-.Lfunc_begin13
	.uleb128 .Ltmp110-.Ltmp109
	.uleb128 .Ltmp111-.Lfunc_begin13
	.byte	0
	.uleb128 .Ltmp110-.Lfunc_begin13
	.uleb128 .Lfunc_end41-.Ltmp110
	.byte	0
	.byte	0
.Lcst_end13:
	.p2align	2

	.section	".text._ZN5alloc4sync12Arc$LT$T$GT$9drop_slow17hcaa08d5bc0dd82c3E","ax",@progbits
	.p2align	4, 0x90
	.type	_ZN5alloc4sync12Arc$LT$T$GT$9drop_slow17hcaa08d5bc0dd82c3E,@function
_ZN5alloc4sync12Arc$LT$T$GT$9drop_slow17hcaa08d5bc0dd82c3E:
	.cfi_startproc
	pushq	%r14
	.cfi_def_cfa_offset 16
	pushq	%rbx
	.cfi_def_cfa_offset 24
	pushq	%rax
	.cfi_def_cfa_offset 32
	.cfi_offset %rbx, -24
	.cfi_offset %r14, -16
	movq	%rdi, %r14
	movq	(%rdi), %rbx
	movq	16(%rbx), %rdi
	callq	*pthread_mutex_destroy@GOTPCREL(%rip)
	movq	16(%rbx), %rdi
	callq	*free@GOTPCREL(%rip)
	movq	32(%rbx), %rdi
	testq	%rdi, %rdi
	je	.LBB42_3
	cmpq	$0, 40(%rbx)
	je	.LBB42_3
	callq	*free@GOTPCREL(%rip)
.LBB42_3:
	movq	(%r14), %rdi
	cmpq	$-1, %rdi
	je	.LBB42_5
	lock		subq	$1, 8(%rdi)
	jne	.LBB42_5
	#MEMBARRIER
	addq	$8, %rsp
	.cfi_def_cfa_offset 24
	popq	%rbx
	.cfi_def_cfa_offset 16
	popq	%r14
	.cfi_def_cfa_offset 8
	jmpq	*free@GOTPCREL(%rip)
.LBB42_5:
	.cfi_def_cfa_offset 32
	addq	$8, %rsp
	.cfi_def_cfa_offset 24
	popq	%rbx
	.cfi_def_cfa_offset 16
	popq	%r14
	.cfi_def_cfa_offset 8
	retq
.Lfunc_end42:
	.size	_ZN5alloc4sync12Arc$LT$T$GT$9drop_slow17hcaa08d5bc0dd82c3E, .Lfunc_end42-_ZN5alloc4sync12Arc$LT$T$GT$9drop_slow17hcaa08d5bc0dd82c3E
	.cfi_endproc

	.section	".text._ZN5alloc4sync12Arc$LT$T$GT$9drop_slow17hf1af2c8314bcc9e4E","ax",@progbits
	.p2align	4, 0x90
	.type	_ZN5alloc4sync12Arc$LT$T$GT$9drop_slow17hf1af2c8314bcc9e4E,@function
_ZN5alloc4sync12Arc$LT$T$GT$9drop_slow17hf1af2c8314bcc9e4E:
.Lfunc_begin14:
	.cfi_startproc
	.cfi_personality 155, DW.ref.rust_eh_personality
	.cfi_lsda 27, .Lexception14
	pushq	%r14
	.cfi_def_cfa_offset 16
	pushq	%rbx
	.cfi_def_cfa_offset 24
	subq	$104, %rsp
	.cfi_def_cfa_offset 128
	.cfi_offset %rbx, -24
	.cfi_offset %r14, -16
	movq	(%rdi), %rbx
	movq	16(%rbx), %rax
	movq	%rax, 48(%rsp)
	testq	%rax, %rax
	jne	.LBB43_8
	movq	%rdi, %r14
	movq	24(%rbx), %rdi
	callq	*pthread_mutex_lock@GOTPCREL(%rip)
	movq	_ZN3std9panicking11panic_count18GLOBAL_PANIC_COUNT17h3b25e77861be4659E(%rip), %rax
	testq	%rax, %rax
	jne	.LBB43_3
	xorl	%eax, %eax
	leaq	24(%rbx), %rcx
	movb	32(%rbx), %dl
	testb	%dl, %dl
	jne	.LBB43_5
.LBB43_9:
	movq	%rcx, (%rsp)
	movb	%al, 8(%rsp)
	movq	40(%rbx), %rcx
	testq	%rcx, %rcx
	jne	.LBB43_10
	cmpq	$0, 120(%rbx)
	jne	.LBB43_34
	testb	%al, %al
	jne	.LBB43_22
	movq	_ZN3std9panicking11panic_count18GLOBAL_PANIC_COUNT17h3b25e77861be4659E(%rip), %rax
	testq	%rax, %rax
	jne	.LBB43_20
.LBB43_22:
	movq	24(%rbx), %rdi
	callq	*pthread_mutex_unlock@GOTPCREL(%rip)
	movq	24(%rbx), %rdi
	callq	*pthread_mutex_destroy@GOTPCREL(%rip)
	movq	24(%rbx), %rdi
	callq	*free@GOTPCREL(%rip)
	movq	56(%rbx), %rax
	cmpq	$1, %rax
	je	.LBB43_24
	testq	%rax, %rax
	jne	.LBB43_26
.LBB43_24:
	movq	64(%rbx), %rax
	lock		subq	$1, (%rax)
	jne	.LBB43_26
	leaq	64(%rbx), %rdi
	#MEMBARRIER
	callq	_ZN5alloc4sync12Arc$LT$T$GT$9drop_slow17h1e82fdada470bc6dE
.LBB43_26:
	movq	80(%rbx), %rax
	testq	%rax, %rax
	je	.LBB43_30
	movq	72(%rbx), %rdi
	testq	%rdi, %rdi
	je	.LBB43_30
	movabsq	$1152921504606846975, %rcx
	andq	%rcx, %rax
	je	.LBB43_30
	callq	*free@GOTPCREL(%rip)
.LBB43_30:
	movq	(%r14), %rdi
	cmpq	$-1, %rdi
	je	.LBB43_37
	lock		subq	$1, 8(%rdi)
	jne	.LBB43_37
	#MEMBARRIER
	addq	$104, %rsp
	.cfi_def_cfa_offset 24
	popq	%rbx
	.cfi_def_cfa_offset 16
	popq	%r14
	.cfi_def_cfa_offset 8
	jmpq	*free@GOTPCREL(%rip)
.LBB43_37:
	.cfi_def_cfa_offset 128
	addq	$104, %rsp
	.cfi_def_cfa_offset 24
	popq	%rbx
	.cfi_def_cfa_offset 16
	popq	%r14
	.cfi_def_cfa_offset 8
	retq
.LBB43_3:
	.cfi_def_cfa_offset 128
	callq	_ZN3std9panicking11panic_count17is_zero_slow_path17h114aac63407c5996E
	xorb	$1, %al
	leaq	24(%rbx), %rcx
	movb	32(%rbx), %dl
	testb	%dl, %dl
	je	.LBB43_9
.LBB43_5:
	movq	%rcx, (%rsp)
	movb	%al, 8(%rsp)
.Ltmp115:
	leaq	anon.03fa34025239a254ab5d789983420479.13.llvm.783488666902379826(%rip), %rdi
	leaq	.L__unnamed_3(%rip), %rcx
	leaq	.L__unnamed_40(%rip), %r8
	movq	%rsp, %rdx
	movl	$43, %esi
	callq	_ZN4core6result13unwrap_failed17h9cb4e8dca1981ba0E
.Ltmp116:
	jmp	.LBB43_6
.LBB43_20:
	callq	_ZN3std9panicking11panic_count17is_zero_slow_path17h114aac63407c5996E
	testb	%al, %al
	jne	.LBB43_22
	movb	$1, 32(%rbx)
	jmp	.LBB43_22
.LBB43_8:
	leaq	48(%rsp), %rax
	movq	%rax, 56(%rsp)
	leaq	.L__unnamed_34(%rip), %rax
	movq	%rax, 64(%rsp)
	leaq	56(%rsp), %rax
	movq	%rax, 72(%rsp)
	leaq	_ZN42_$LT$$RF$T$u20$as$u20$core..fmt..Debug$GT$3fmt17h19aace9ba3b20d23E(%rip), %rax
	movq	%rax, 80(%rsp)
	leaq	64(%rsp), %rcx
	movq	%rcx, 88(%rsp)
	movq	%rax, 96(%rsp)
	leaq	anon.44270d117240652e2c29b279aed00257.126.llvm.3683828415613454216(%rip), %rax
	movq	%rax, (%rsp)
	movq	$3, 8(%rsp)
	movq	$0, 16(%rsp)
	leaq	72(%rsp), %rax
	movq	%rax, 32(%rsp)
	movq	$2, 40(%rsp)
.Ltmp112:
	leaq	.L__unnamed_41(%rip), %rsi
	movq	%rsp, %rdi
	callq	_ZN4core9panicking9panic_fmt17h88d1befd03709389E
.Ltmp113:
	jmp	.LBB43_6
.LBB43_10:
	movq	8(%rcx), %rax
	movq	%rax, 40(%rbx)
	testq	%rax, %rax
	jne	.LBB43_12
	movq	$0, 48(%rbx)
.LBB43_12:
	movq	$0, 8(%rcx)
	movq	(%rcx), %rax
	movq	$0, (%rcx)
	testq	%rax, %rax
	jne	.LBB43_14
.Ltmp120:
	leaq	.Lanon.03fa34025239a254ab5d789983420479.9(%rip), %rdi
	leaq	.Lanon.03fa34025239a254ab5d789983420479.56(%rip), %rdx
	movl	$43, %esi
	callq	_ZN4core9panicking5panic17h879f53aa45bf615bE
.Ltmp121:
	jmp	.LBB43_6
.LBB43_34:
.Ltmp122:
	leaq	.L__unnamed_11(%rip), %rdi
	leaq	.L__unnamed_42(%rip), %rdx
	movl	$42, %esi
	callq	_ZN4core9panicking5panic17h879f53aa45bf615bE
.Ltmp123:
	jmp	.LBB43_6
.LBB43_14:
	movq	%rax, 72(%rsp)
	lock		subq	$1, (%rax)
	jne	.LBB43_16
	#MEMBARRIER
	leaq	72(%rsp), %rdi
	callq	_ZN5alloc4sync12Arc$LT$T$GT$9drop_slow17h1e82fdada470bc6dE
.LBB43_16:
.Ltmp118:
	leaq	.L__unnamed_43(%rip), %rdi
	leaq	.L__unnamed_44(%rip), %rdx
	movl	$49, %esi
	callq	_ZN4core9panicking5panic17h879f53aa45bf615bE
.Ltmp119:
.LBB43_6:
	ud2
.LBB43_35:
.Ltmp114:
	movq	%rax, %r14
	jmp	.LBB43_36
.LBB43_7:
.Ltmp117:
	movq	%rax, %r14
	movq	%rsp, %rdi
	callq	_ZN4core3ptr13drop_in_place17h451c6c51a559d151E
	jmp	.LBB43_36
.LBB43_33:
.Ltmp124:
	movq	%rax, %r14
	movq	%rsp, %rdi
	callq	_ZN4core3ptr13drop_in_place17h4724952f873bf679E
.LBB43_36:
	addq	$24, %rbx
	movq	%rbx, %rdi
	callq	_ZN4core3ptr13drop_in_place17h97cc93119de6feb1E
	movq	%r14, %rdi
	callq	_Unwind_Resume@PLT
	ud2
.Lfunc_end43:
	.size	_ZN5alloc4sync12Arc$LT$T$GT$9drop_slow17hf1af2c8314bcc9e4E, .Lfunc_end43-_ZN5alloc4sync12Arc$LT$T$GT$9drop_slow17hf1af2c8314bcc9e4E
	.cfi_endproc
	.section	.gcc_except_table,"a",@progbits
	.p2align	2
GCC_except_table43:
.Lexception14:
	.byte	255
	.byte	255
	.byte	1
	.uleb128 .Lcst_end14-.Lcst_begin14
.Lcst_begin14:
	.uleb128 .Ltmp115-.Lfunc_begin14
	.uleb128 .Ltmp116-.Ltmp115
	.uleb128 .Ltmp117-.Lfunc_begin14
	.byte	0
	.uleb128 .Ltmp112-.Lfunc_begin14
	.uleb128 .Ltmp113-.Ltmp112
	.uleb128 .Ltmp114-.Lfunc_begin14
	.byte	0
	.uleb128 .Ltmp120-.Lfunc_begin14
	.uleb128 .Ltmp119-.Ltmp120
	.uleb128 .Ltmp124-.Lfunc_begin14
	.byte	0
	.uleb128 .Ltmp119-.Lfunc_begin14
	.uleb128 .Lfunc_end43-.Ltmp119
	.byte	0
	.byte	0
.Lcst_end14:
	.p2align	2

	.section	.rodata.cst16,"aM",@progbits,16
	.p2align	4
.LCPI44_0:
	.zero	16
	.section	".text._ZN76_$LT$std..sync..mpsc..Receiver$LT$T$GT$$u20$as$u20$core..ops..drop..Drop$GT$4drop17hcc99b8b2e8415a98E","ax",@progbits
	.p2align	4, 0x90
	.type	_ZN76_$LT$std..sync..mpsc..Receiver$LT$T$GT$$u20$as$u20$core..ops..drop..Drop$GT$4drop17hcc99b8b2e8415a98E,@function
_ZN76_$LT$std..sync..mpsc..Receiver$LT$T$GT$$u20$as$u20$core..ops..drop..Drop$GT$4drop17hcc99b8b2e8415a98E:
.Lfunc_begin15:
	.cfi_startproc
	.cfi_personality 155, DW.ref.rust_eh_personality
	.cfi_lsda 27, .Lexception15
	pushq	%rbp
	.cfi_def_cfa_offset 16
	pushq	%r15
	.cfi_def_cfa_offset 24
	pushq	%r14
	.cfi_def_cfa_offset 32
	pushq	%r13
	.cfi_def_cfa_offset 40
	pushq	%r12
	.cfi_def_cfa_offset 48
	pushq	%rbx
	.cfi_def_cfa_offset 56
	subq	$88, %rsp
	.cfi_def_cfa_offset 144
	.cfi_offset %rbx, -56
	.cfi_offset %r12, -48
	.cfi_offset %r13, -40
	.cfi_offset %r14, -32
	.cfi_offset %r15, -24
	.cfi_offset %rbp, -16
	movq	(%rdi), %rax
	leaq	.LJTI44_0(%rip), %rcx
	movslq	(%rcx,%rax,4), %rax
	addq	%rcx, %rax
	jmpq	*%rax
.LBB44_56:
	movq	8(%rdi), %rax
	movl	$2, %ecx
	xchgq	%rcx, 16(%rax)
	testq	%rcx, %rcx
	je	.LBB44_13
	cmpq	$1, %rcx
	je	.LBB44_60
	cmpq	$2, %rcx
	je	.LBB44_13
	leaq	.Lanon.239c3e3bdbdb80e76e08bceba4553aea.24(%rip), %rdi
	leaq	.L__unnamed_45(%rip), %rdx
	movl	$40, %esi
	callq	_ZN4core9panicking5panic17h879f53aa45bf615bE
	ud2
.LBB44_71:
	movq	8(%rdi), %r14
	movb	$1, %al
	xchgb	%al, 88(%r14)
	movabsq	$-9223372036854775808, %r15
	movq	40(%r14), %rbx
	movq	%rbx, %rax
	lock		cmpxchgq	%r15, 32(%r14)
	cmpq	%r15, %rax
	je	.LBB44_13
	cmpq	%rbx, %rax
	je	.LBB44_13
	movq	free@GOTPCREL(%rip), %r12
	.p2align	4, 0x90
.LBB44_74:
	movq	24(%r14), %rdi
	movq	(%rdi), %rax
	testq	%rax, %rax
	je	.LBB44_78
	movq	%rax, 24(%r14)
	cmpq	$1, 8(%rdi)
	je	.LBB44_80
	cmpq	$1, 8(%rax)
	jne	.LBB44_82
	movq	$0, 8(%rax)
	callq	*%r12
	addq	$1, %rbx
	jmp	.LBB44_74
.LBB44_78:
	movq	16(%r14), %rax
	movq	%rbx, %rax
	lock		cmpxchgq	%r15, 32(%r14)
	cmpq	%r15, %rax
	je	.LBB44_13
	cmpq	%rbx, %rax
	jne	.LBB44_74
	jmp	.LBB44_13
.LBB44_1:
	movq	8(%rdi), %rbx
	movq	24(%rbx), %rdi
	callq	*pthread_mutex_lock@GOTPCREL(%rip)
	movq	_ZN3std9panicking11panic_count18GLOBAL_PANIC_COUNT17h3b25e77861be4659E(%rip), %rax
	testq	%rax, %rax
	jne	.LBB44_3
	xorl	%eax, %eax
	leaq	24(%rbx), %r14
	movb	32(%rbx), %cl
	testb	%cl, %cl
	jne	.LBB44_5
.LBB44_7:
	movq	%r14, 72(%rsp)
	movb	%al, 80(%rsp)
	cmpb	$0, 128(%rbx)
	je	.LBB44_14
	testb	%al, %al
	jne	.LBB44_12
	movq	_ZN3std9panicking11panic_count18GLOBAL_PANIC_COUNT17h3b25e77861be4659E(%rip), %rax
	testq	%rax, %rax
	jne	.LBB44_10
.LBB44_12:
	movq	(%r14), %rdi
	callq	*pthread_mutex_unlock@GOTPCREL(%rip)
	jmp	.LBB44_13
.LBB44_62:
	movq	8(%rdi), %r13
	movb	$1, %al
	xchgb	%al, 168(%r13)
	movabsq	$-9223372036854775808, %rbp
	movq	96(%r13), %rbx
	movq	%rbx, %rax
	lock		cmpxchgq	%rbp, 152(%r13)
	cmpq	%rbp, %rax
	je	.LBB44_13
	cmpq	%rbx, %rax
	je	.LBB44_13
	leaq	64(%r13), %r14
	leaq	24(%rsp), %r12
	jmp	.LBB44_67
.LBB44_70:
	addq	$1, %rbx
	.p2align	4, 0x90
.LBB44_67:
	movq	%r12, %rdi
	movq	%r14, %rsi
	callq	_ZN3std4sync4mpsc10spsc_queue52Queue$LT$T$C$ProducerAddition$C$ConsumerAddition$GT$3pop17h0620986c715f5163E
	movq	24(%rsp), %r15
	testq	$-3, %r15
	je	.LBB44_69
	leaq	32(%rsp), %rdi
	callq	_ZN4core3ptr13drop_in_place17h43ac3631ab207fe0E
.LBB44_69:
	cmpq	$2, %r15
	jne	.LBB44_70
	movq	%rbx, %rax
	lock		cmpxchgq	%rbp, 152(%r13)
	cmpq	%rbp, %rax
	je	.LBB44_13
	cmpq	%rbx, %rax
	jne	.LBB44_67
	jmp	.LBB44_13
.LBB44_14:
	leaq	40(%rbx), %rcx
	movb	$1, 128(%rbx)
	cmpq	$0, 112(%rbx)
	je	.LBB44_15
	movq	72(%rbx), %rdx
	movups	80(%rbx), %xmm0
	movaps	%xmm0, (%rsp)
	movq	$8, 72(%rbx)
	xorps	%xmm0, %xmm0
	movups	%xmm0, 80(%rbx)
	movapd	(%rsp), %xmm0
	movupd	%xmm0, 32(%rsp)
	jmp	.LBB44_17
.LBB44_60:
	cmpq	$0, 24(%rax)
	movq	$0, 24(%rax)
	jne	.LBB44_13
	leaq	.Lanon.03fa34025239a254ab5d789983420479.9(%rip), %rdi
	leaq	.L__unnamed_46(%rip), %rdx
	movl	$43, %esi
	callq	_ZN4core9panicking5panic17h879f53aa45bf615bE
	ud2
.LBB44_15:
	xorpd	%xmm0, %xmm0
	movupd	%xmm0, 32(%rsp)
	movl	$8, %edx
.LBB44_17:
	movq	%rdx, 24(%rsp)
	movdqu	40(%rbx), %xmm1
	xorpd	%xmm0, %xmm0
	movupd	%xmm0, (%rcx)
	movq	56(%rbx), %rdx
	movq	64(%rbx), %rcx
	movq	$2, 56(%rbx)
	movq	%rdx, (%rsp)
	movq	%rcx, 8(%rsp)
	testq	%rdx, %rdx
	je	.LBB44_20
	cmpq	$2, %rdx
	jne	.LBB44_19
	movq	$0, 16(%rsp)
	movdqa	%xmm1, 48(%rsp)
	testb	%al, %al
	jne	.LBB44_48
	jmp	.LBB44_45
.LBB44_20:
	movq	%rcx, 64(%rsp)
	movq	120(%rbx), %rdx
	movq	$0, 120(%rbx)
	testq	%rdx, %rdx
	je	.LBB44_21
	movb	$1, (%rdx)
	movq	%rcx, 16(%rsp)
	movdqa	%xmm1, 48(%rsp)
	testb	%al, %al
	jne	.LBB44_48
.LBB44_45:
	movq	_ZN3std9panicking11panic_count18GLOBAL_PANIC_COUNT17h3b25e77861be4659E(%rip), %rax
	testq	%rax, %rax
	jne	.LBB44_46
.LBB44_48:
	movq	(%r14), %rdi
	callq	*pthread_mutex_unlock@GOTPCREL(%rip)
	movb	$1, %bl
	movq	syscall@GOTPCREL(%rip), %r15
	movq	%rsp, %r14
	movdqa	48(%rsp), %xmm1
	.p2align	4, 0x90
.LBB44_22:
	movq	%xmm1, %rax
	testq	%rax, %rax
	je	.LBB44_33
	movq	(%rax), %rcx
	movq	8(%rax), %rdx
	testq	%rdx, %rdx
	je	.LBB44_24
	movq	%rdx, %xmm0
	movsd	%xmm0, %xmm1
	jmp	.LBB44_26
	.p2align	4, 0x90
.LBB44_24:
	movsd	8(%rax), %xmm1
.LBB44_26:
	xorpd	%xmm0, %xmm0
	movupd	%xmm0, (%rax)
	testq	%rcx, %rcx
	je	.LBB44_27
	movq	%rcx, (%rsp)
	xorl	%eax, %eax
	lock		cmpxchgb	%bl, 24(%rcx)
	jne	.LBB44_31
	movq	(%rsp), %rax
	movq	16(%rax), %rsi
	movl	$1, %eax
	xchgl	%eax, 40(%rsi)
	cmpl	$-1, %eax
	je	.LBB44_30
.LBB44_31:
	movq	(%rsp), %rax
	lock		subq	$1, (%rax)
	jne	.LBB44_22
.LBB44_32:
	#MEMBARRIER
	movq	%r14, %rdi
	movapd	%xmm1, 48(%rsp)
	callq	_ZN5alloc4sync12Arc$LT$T$GT$9drop_slow17h1e82fdada470bc6dE
	movdqa	48(%rsp), %xmm1
	jmp	.LBB44_22
.LBB44_30:
	addq	$40, %rsi
	movl	$202, %edi
	movl	$129, %edx
	movl	$1, %ecx
	xorl	%eax, %eax
	movapd	%xmm1, 48(%rsp)
	callq	*%r15
	movapd	48(%rsp), %xmm1
	movq	(%rsp), %rax
	lock		subq	$1, (%rax)
	jne	.LBB44_22
	jmp	.LBB44_32
.LBB44_33:
	movq	16(%rsp), %rcx
	testq	%rcx, %rcx
	je	.LBB44_39
	movq	%rcx, (%rsp)
	movb	$1, %dl
	xorl	%eax, %eax
	lock		cmpxchgb	%dl, 24(%rcx)
	jne	.LBB44_37
	movq	(%rsp), %rax
	movq	16(%rax), %rsi
	movl	$1, %eax
	xchgl	%eax, 40(%rsi)
	cmpl	$-1, %eax
	jne	.LBB44_37
	addq	$40, %rsi
	movl	$202, %edi
	movl	$129, %edx
	movl	$1, %ecx
	xorl	%eax, %eax
	callq	*syscall@GOTPCREL(%rip)
.LBB44_37:
	movq	(%rsp), %rax
	lock		subq	$1, (%rax)
	jne	.LBB44_39
	#MEMBARRIER
	movq	%rsp, %rdi
	callq	_ZN5alloc4sync12Arc$LT$T$GT$9drop_slow17h1e82fdada470bc6dE
.LBB44_39:
	movq	32(%rsp), %rax
	testq	%rax, %rax
	je	.LBB44_13
	movq	24(%rsp), %rdi
	testq	%rdi, %rdi
	je	.LBB44_13
	movabsq	$1152921504606846975, %rcx
	andq	%rcx, %rax
	je	.LBB44_13
	callq	*free@GOTPCREL(%rip)
.LBB44_13:
	addq	$88, %rsp
	.cfi_def_cfa_offset 56
	popq	%rbx
	.cfi_def_cfa_offset 48
	popq	%r12
	.cfi_def_cfa_offset 40
	popq	%r13
	.cfi_def_cfa_offset 32
	popq	%r14
	.cfi_def_cfa_offset 24
	popq	%r15
	.cfi_def_cfa_offset 16
	popq	%rbp
	.cfi_def_cfa_offset 8
	retq
.LBB44_3:
	.cfi_def_cfa_offset 144
	callq	_ZN3std9panicking11panic_count17is_zero_slow_path17h114aac63407c5996E
	xorb	$1, %al
	leaq	24(%rbx), %r14
	movb	32(%rbx), %cl
	testb	%cl, %cl
	je	.LBB44_7
.LBB44_5:
	movq	%r14, 24(%rsp)
	movb	%al, 32(%rsp)
.Ltmp125:
	leaq	anon.03fa34025239a254ab5d789983420479.13.llvm.783488666902379826(%rip), %rdi
	leaq	.L__unnamed_3(%rip), %rcx
	leaq	.L__unnamed_47(%rip), %r8
	leaq	24(%rsp), %rdx
	movl	$43, %esi
	callq	_ZN4core6result13unwrap_failed17h9cb4e8dca1981ba0E
.Ltmp126:
	jmp	.LBB44_6
.LBB44_10:
	callq	_ZN3std9panicking11panic_count17is_zero_slow_path17h114aac63407c5996E
	testb	%al, %al
	jne	.LBB44_12
	movb	$1, 32(%rbx)
	jmp	.LBB44_12
.LBB44_46:
	callq	_ZN3std9panicking11panic_count17is_zero_slow_path17h114aac63407c5996E
	testb	%al, %al
	jne	.LBB44_48
	movb	$1, 32(%rbx)
	jmp	.LBB44_48
.LBB44_82:
	leaq	.L__unnamed_17(%rip), %rdi
	leaq	.L__unnamed_23(%rip), %rdx
	jmp	.LBB44_81
.LBB44_80:
	leaq	.L__unnamed_21(%rip), %rdi
	leaq	.L__unnamed_22(%rip), %rdx
.LBB44_81:
	movl	$41, %esi
	callq	_ZN4core9panicking5panic17h879f53aa45bf615bE
	ud2
.LBB44_27:
.Ltmp131:
	leaq	.Lanon.03fa34025239a254ab5d789983420479.9(%rip), %rdi
	leaq	.Lanon.03fa34025239a254ab5d789983420479.56(%rip), %rdx
	movl	$43, %esi
	callq	_ZN4core9panicking5panic17h879f53aa45bf615bE
.Ltmp132:
.LBB44_6:
	ud2
.LBB44_19:
.Ltmp128:
	leaq	.Lanon.239c3e3bdbdb80e76e08bceba4553aea.24(%rip), %rdi
	leaq	.L__unnamed_48(%rip), %rdx
	movl	$40, %esi
	callq	_ZN4core9panicking5panic17h879f53aa45bf615bE
.Ltmp129:
	jmp	.LBB44_6
.LBB44_21:
.Ltmp134:
	leaq	.Lanon.03fa34025239a254ab5d789983420479.9(%rip), %rdi
	leaq	.L__unnamed_49(%rip), %rdx
	movl	$43, %esi
	callq	_ZN4core9panicking5panic17h879f53aa45bf615bE
.Ltmp135:
	jmp	.LBB44_6
.LBB44_55:
.Ltmp136:
	movq	%rax, %rbx
	leaq	64(%rsp), %rdi
	callq	_ZN4core3ptr13drop_in_place17h6f32fe250bbc628cE
	jmp	.LBB44_51
.LBB44_50:
.Ltmp130:
	movq	%rax, %rbx
	movq	%rsp, %rdi
	callq	_ZN4core3ptr13drop_in_place17h2cf40ea805a77371E
.LBB44_51:
	leaq	24(%rsp), %rdi
	callq	_ZN4core3ptr13drop_in_place17h396c5661d60a69fbE
	leaq	72(%rsp), %rdi
	callq	_ZN4core3ptr13drop_in_place17h4724952f873bf679E
	jmp	.LBB44_84
.LBB44_83:
.Ltmp127:
	movq	%rax, %rbx
	leaq	24(%rsp), %rdi
	callq	_ZN4core3ptr13drop_in_place17h451c6c51a559d151E
	jmp	.LBB44_84
.LBB44_52:
.Ltmp133:
	movq	%rax, %rbx
	cmpq	$0, 16(%rsp)
	je	.LBB44_54
	leaq	16(%rsp), %rdi
	callq	_ZN4core3ptr13drop_in_place17h6f32fe250bbc628cE
.LBB44_54:
	leaq	24(%rsp), %rdi
	callq	_ZN4core3ptr13drop_in_place17h396c5661d60a69fbE
.LBB44_84:
	movq	%rbx, %rdi
	callq	_Unwind_Resume@PLT
	ud2
.Lfunc_end44:
	.size	_ZN76_$LT$std..sync..mpsc..Receiver$LT$T$GT$$u20$as$u20$core..ops..drop..Drop$GT$4drop17hcc99b8b2e8415a98E, .Lfunc_end44-_ZN76_$LT$std..sync..mpsc..Receiver$LT$T$GT$$u20$as$u20$core..ops..drop..Drop$GT$4drop17hcc99b8b2e8415a98E
	.cfi_endproc
	.section	".rodata._ZN76_$LT$std..sync..mpsc..Receiver$LT$T$GT$$u20$as$u20$core..ops..drop..Drop$GT$4drop17hcc99b8b2e8415a98E","a",@progbits
	.p2align	2
.LJTI44_0:
	.long	.LBB44_56-.LJTI44_0
	.long	.LBB44_62-.LJTI44_0
	.long	.LBB44_71-.LJTI44_0
	.long	.LBB44_1-.LJTI44_0
	.section	.gcc_except_table,"a",@progbits
	.p2align	2
GCC_except_table44:
.Lexception15:
	.byte	255
	.byte	255
	.byte	1
	.uleb128 .Lcst_end15-.Lcst_begin15
.Lcst_begin15:
	.uleb128 .Lfunc_begin15-.Lfunc_begin15
	.uleb128 .Ltmp125-.Lfunc_begin15
	.byte	0
	.byte	0
	.uleb128 .Ltmp125-.Lfunc_begin15
	.uleb128 .Ltmp126-.Ltmp125
	.uleb128 .Ltmp127-.Lfunc_begin15
	.byte	0
	.uleb128 .Ltmp126-.Lfunc_begin15
	.uleb128 .Ltmp131-.Ltmp126
	.byte	0
	.byte	0
	.uleb128 .Ltmp131-.Lfunc_begin15
	.uleb128 .Ltmp132-.Ltmp131
	.uleb128 .Ltmp133-.Lfunc_begin15
	.byte	0
	.uleb128 .Ltmp128-.Lfunc_begin15
	.uleb128 .Ltmp129-.Ltmp128
	.uleb128 .Ltmp130-.Lfunc_begin15
	.byte	0
	.uleb128 .Ltmp134-.Lfunc_begin15
	.uleb128 .Ltmp135-.Ltmp134
	.uleb128 .Ltmp136-.Lfunc_begin15
	.byte	0
	.uleb128 .Ltmp135-.Lfunc_begin15
	.uleb128 .Lfunc_end44-.Ltmp135
	.byte	0
	.byte	0
.Lcst_end15:
	.p2align	2

	.section	".text._ZN82_$LT$std..sys_common..poison..PoisonError$LT$T$GT$$u20$as$u20$core..fmt..Debug$GT$3fmt17h1bdca85a6ae20fc2E","ax",@progbits
	.p2align	4, 0x90
	.type	_ZN82_$LT$std..sys_common..poison..PoisonError$LT$T$GT$$u20$as$u20$core..fmt..Debug$GT$3fmt17h1bdca85a6ae20fc2E,@function
_ZN82_$LT$std..sys_common..poison..PoisonError$LT$T$GT$$u20$as$u20$core..fmt..Debug$GT$3fmt17h1bdca85a6ae20fc2E:
	.cfi_startproc
	movq	%rsi, %rdx
	leaq	.L__unnamed_50(%rip), %rdi
	movl	$25, %esi
	jmp	_ZN40_$LT$str$u20$as$u20$core..fmt..Debug$GT$3fmt17h7dbca112d92eafe3E
.Lfunc_end45:
	.size	_ZN82_$LT$std..sys_common..poison..PoisonError$LT$T$GT$$u20$as$u20$core..fmt..Debug$GT$3fmt17h1bdca85a6ae20fc2E, .Lfunc_end45-_ZN82_$LT$std..sys_common..poison..PoisonError$LT$T$GT$$u20$as$u20$core..fmt..Debug$GT$3fmt17h1bdca85a6ae20fc2E
	.cfi_endproc

	.section	".text._ZN91_$LT$std..panicking..begin_panic..PanicPayload$LT$A$GT$$u20$as$u20$core..panic..BoxMeUp$GT$3get17hcf56a0a86ca45fa9E","ax",@progbits
	.p2align	4, 0x90
	.type	_ZN91_$LT$std..panicking..begin_panic..PanicPayload$LT$A$GT$$u20$as$u20$core..panic..BoxMeUp$GT$3get17hcf56a0a86ca45fa9E,@function
_ZN91_$LT$std..panicking..begin_panic..PanicPayload$LT$A$GT$$u20$as$u20$core..panic..BoxMeUp$GT$3get17hcf56a0a86ca45fa9E:
	.cfi_startproc
	pushq	%rax
	.cfi_def_cfa_offset 16
	cmpq	$0, (%rdi)
	je	.LBB46_1
	movq	%rdi, %rax
	leaq	.L__unnamed_51(%rip), %rdx
	popq	%rcx
	.cfi_def_cfa_offset 8
	retq
.LBB46_1:
	.cfi_def_cfa_offset 16
	callq	_ZN3std7process5abort17h1b2c855fbd853d9dE
	ud2
.Lfunc_end46:
	.size	_ZN91_$LT$std..panicking..begin_panic..PanicPayload$LT$A$GT$$u20$as$u20$core..panic..BoxMeUp$GT$3get17hcf56a0a86ca45fa9E, .Lfunc_end46-_ZN91_$LT$std..panicking..begin_panic..PanicPayload$LT$A$GT$$u20$as$u20$core..panic..BoxMeUp$GT$3get17hcf56a0a86ca45fa9E
	.cfi_endproc

	.section	".text._ZN91_$LT$std..panicking..begin_panic..PanicPayload$LT$A$GT$$u20$as$u20$core..panic..BoxMeUp$GT$8take_box17hb7677f715178b6beE","ax",@progbits
	.p2align	4, 0x90
	.type	_ZN91_$LT$std..panicking..begin_panic..PanicPayload$LT$A$GT$$u20$as$u20$core..panic..BoxMeUp$GT$8take_box17hb7677f715178b6beE,@function
_ZN91_$LT$std..panicking..begin_panic..PanicPayload$LT$A$GT$$u20$as$u20$core..panic..BoxMeUp$GT$8take_box17hb7677f715178b6beE:
	.cfi_startproc
	pushq	%r14
	.cfi_def_cfa_offset 16
	pushq	%rbx
	.cfi_def_cfa_offset 24
	pushq	%rax
	.cfi_def_cfa_offset 32
	.cfi_offset %rbx, -24
	.cfi_offset %r14, -16
	movq	(%rdi), %rbx
	movq	8(%rdi), %r14
	movq	$0, (%rdi)
	testq	%rbx, %rbx
	je	.LBB47_3
	movl	$16, %edi
	callq	*malloc@GOTPCREL(%rip)
	testq	%rax, %rax
	je	.LBB47_4
	movq	%rbx, (%rax)
	movq	%r14, 8(%rax)
	leaq	.L__unnamed_51(%rip), %rdx
	addq	$8, %rsp
	.cfi_def_cfa_offset 24
	popq	%rbx
	.cfi_def_cfa_offset 16
	popq	%r14
	.cfi_def_cfa_offset 8
	retq
.LBB47_3:
	.cfi_def_cfa_offset 32
	callq	_ZN3std7process5abort17h1b2c855fbd853d9dE
	ud2
.LBB47_4:
	movl	$16, %edi
	movl	$8, %esi
	callq	_ZN5alloc5alloc18handle_alloc_error17h66207f37c5e1158cE
	ud2
.Lfunc_end47:
	.size	_ZN91_$LT$std..panicking..begin_panic..PanicPayload$LT$A$GT$$u20$as$u20$core..panic..BoxMeUp$GT$8take_box17hb7677f715178b6beE, .Lfunc_end47-_ZN91_$LT$std..panicking..begin_panic..PanicPayload$LT$A$GT$$u20$as$u20$core..panic..BoxMeUp$GT$8take_box17hb7677f715178b6beE
	.cfi_endproc

	.section	.rodata.cst16,"aM",@progbits,16
	.p2align	4
.LCPI48_0:
	.quad	4
	.quad	1
.LCPI48_1:
	.quad	1
	.quad	1
.LCPI48_2:
	.quad	15
	.quad	15
	.section	.text._ZN5phatq4main17hff9feffff70b0fe5E,"ax",@progbits
	.p2align	4, 0x90
	.type	_ZN5phatq4main17hff9feffff70b0fe5E,@function
_ZN5phatq4main17hff9feffff70b0fe5E:
.Lfunc_begin16:
	.cfi_startproc
	.cfi_personality 155, DW.ref.rust_eh_personality
	.cfi_lsda 27, .Lexception16
	pushq	%rbp
	.cfi_def_cfa_offset 16
	pushq	%r15
	.cfi_def_cfa_offset 24
	pushq	%r14
	.cfi_def_cfa_offset 32
	pushq	%r13
	.cfi_def_cfa_offset 40
	pushq	%r12
	.cfi_def_cfa_offset 48
	pushq	%rbx
	.cfi_def_cfa_offset 56
	subq	$488, %rsp
	.cfi_def_cfa_offset 544
	.cfi_offset %rbx, -56
	.cfi_offset %r12, -48
	.cfi_offset %r13, -40
	.cfi_offset %r14, -32
	.cfi_offset %r15, -24
	.cfi_offset %rbp, -16
	movl	$64, %edi
	callq	*malloc@GOTPCREL(%rip)
	testq	%rax, %rax
	je	.LBB48_103
	movq	$0, (%rax)
	movb	$0, 296(%rsp)
	pxor	%xmm0, %xmm0
	movdqa	%xmm0, 208(%rsp)
	movq	$2, 224(%rsp)
	movq	%rax, 240(%rsp)
	movaps	.LCPI48_0(%rip), %xmm1
	movups	%xmm1, 248(%rsp)
	movdqu	%xmm0, 264(%rsp)
	movdqu	%xmm0, 280(%rsp)
	movdqa	%xmm0, 80(%rsp)
	movdqa	%xmm0, 64(%rsp)
	movq	$0, 96(%rsp)
	movl	$40, %edi
	callq	*malloc@GOTPCREL(%rip)
	testq	%rax, %rax
	je	.LBB48_86
	movq	%rax, %rbp
	movq	96(%rsp), %rax
	movq	%rax, 32(%rbp)
	movdqa	64(%rsp), %xmm0
	movaps	80(%rsp), %xmm1
	movups	%xmm1, 16(%rbp)
	movdqu	%xmm0, (%rbp)
	movq	%rbp, 384(%rsp)
	leaq	320(%rsp), %rbx
	movq	%rbx, %rdi
	callq	*pthread_mutexattr_init@GOTPCREL(%rip)
	testl	%eax, %eax
	jne	.LBB48_104
	movq	%rbx, 32(%rsp)
	movq	%rbx, %rdi
	xorl	%esi, %esi
	callq	*pthread_mutexattr_settype@GOTPCREL(%rip)
	testl	%eax, %eax
	jne	.LBB48_105
	leaq	320(%rsp), %rsi
	movq	%rbp, %rdi
	callq	*pthread_mutex_init@GOTPCREL(%rip)
	testl	%eax, %eax
	jne	.LBB48_106
	leaq	320(%rsp), %rdi
	callq	*pthread_mutexattr_destroy@GOTPCREL(%rip)
	movaps	288(%rsp), %xmm0
	movups	%xmm0, 151(%rsp)
	movaps	272(%rsp), %xmm0
	movups	%xmm0, 135(%rsp)
	movaps	208(%rsp), %xmm0
	movaps	224(%rsp), %xmm1
	movaps	240(%rsp), %xmm2
	movaps	256(%rsp), %xmm3
	movups	%xmm3, 119(%rsp)
	movups	%xmm2, 103(%rsp)
	movups	%xmm1, 87(%rsp)
	movups	%xmm0, 71(%rsp)
	movups	64(%rsp), %xmm0
	movaps	%xmm0, 208(%rsp)
	movups	80(%rsp), %xmm0
	movaps	%xmm0, 224(%rsp)
	movups	96(%rsp), %xmm0
	movaps	%xmm0, 240(%rsp)
	movups	112(%rsp), %xmm0
	movaps	%xmm0, 256(%rsp)
	movups	128(%rsp), %xmm0
	movaps	%xmm0, 272(%rsp)
	movups	144(%rsp), %xmm0
	movaps	%xmm0, 288(%rsp)
	movq	159(%rsp), %rax
	movq	%rax, 303(%rsp)
	movl	$136, %edi
	callq	*malloc@GOTPCREL(%rip)
	testq	%rax, %rax
	je	.LBB48_107
	movq	%rax, %rbx
	movaps	.LCPI48_1(%rip), %xmm0
	movups	%xmm0, (%rax)
	movq	$1, 16(%rax)
	movq	%rbp, 24(%rax)
	movb	$0, 32(%rax)
	movaps	208(%rsp), %xmm0
	movaps	224(%rsp), %xmm1
	movaps	240(%rsp), %xmm2
	movaps	256(%rsp), %xmm3
	movups	%xmm0, 33(%rax)
	movups	%xmm1, 49(%rax)
	movups	%xmm2, 65(%rax)
	movups	%xmm3, 81(%rax)
	movaps	272(%rsp), %xmm0
	movups	%xmm0, 97(%rax)
	movdqa	288(%rsp), %xmm0
	movdqu	%xmm0, 113(%rax)
	movq	303(%rsp), %rax
	movq	%rax, 128(%rbx)
	lock		addq	$1, (%rbx)
	jle	.LBB48_360
	movq	%rbx, 376(%rsp)
	movq	$3, 352(%rsp)
	movq	%rbx, 360(%rsp)
	movq	_ZN8num_cpus5linux16cgroups_num_cpus4ONCE17hed4ac67ad4557691E(%rip), %rax
	cmpq	$3, %rax
	je	.LBB48_9
	movb	$1, 208(%rsp)
	leaq	208(%rsp), %rax
	movq	%rax, 64(%rsp)
.Ltmp154:
	leaq	_ZN8num_cpus5linux16cgroups_num_cpus4ONCE17hed4ac67ad4557691E(%rip), %rdi
	leaq	.Lanon.8115a165155122634cf2b0b10bfb816a.6(%rip), %rcx
	leaq	64(%rsp), %rdx
	xorl	%esi, %esi
	callq	_ZN3std4sync4once4Once10call_inner17h751801c3dab1ebc9E
.Ltmp155:
.LBB48_9:
	movq	_ZN8num_cpus5linux12CGROUPS_CPUS17h222037bb167b8eecE(%rip), %rcx
	movq	%rcx, %rax
	movq	%rcx, 192(%rsp)
	testq	%rcx, %rcx
	jne	.LBB48_12
	pxor	%xmm0, %xmm0
	movdqa	%xmm0, 176(%rsp)
	movdqa	%xmm0, 160(%rsp)
	movdqa	%xmm0, 144(%rsp)
	movdqa	%xmm0, 128(%rsp)
	movdqa	%xmm0, 112(%rsp)
	movdqa	%xmm0, 96(%rsp)
	movdqa	%xmm0, 80(%rsp)
	movdqa	%xmm0, 64(%rsp)
	xorl	%ebp, %ebp
	leaq	64(%rsp), %rdx
	movl	$128, %esi
	xorl	%edi, %edi
	callq	*sched_getaffinity@GOTPCREL(%rip)
	testl	%eax, %eax
	je	.LBB48_81
	movl	$84, %edi
	callq	*sysconf@GOTPCREL(%rip)
	testq	%rax, %rax
	movl	$1, %ecx
	cmovgq	%rax, %rcx
	movq	%rcx, 192(%rsp)
.LBB48_12:
	lock		addq	$1, 16(%rbx)
	jle	.LBB48_360
.LBB48_13:
	movl	$1, %ecx
	xorl	%eax, %eax
	.p2align	4, 0x90
.LBB48_14:
	movq	%rcx, 480(%rsp)
	movq	376(%rsp), %rcx
	lock		addq	$1, (%rcx)
	jle	.LBB48_360
	movq	%rcx, 424(%rsp)
	movq	%rax, 432(%rsp)
	movq	192(%rsp), %rax
	movq	%rax, 440(%rsp)
	movq	$0, 320(%rsp)
	movq	_ZN3std10sys_common6thread9min_stack3MIN17hc3dd7655e2e455a0E(%rip), %r13
	testq	%r13, %r13
	je	.LBB48_17
	addq	$-1, %r13
	jmp	.LBB48_43
	.p2align	4, 0x90
.LBB48_17:
.Ltmp156:
	leaq	208(%rsp), %rdi
	leaq	.Lanon.ffa02072b251c573dcbc2f26f1fe62dd.36(%rip), %rsi
	callq	_ZN3std3env7_var_os17hd7e65307ccb36701E
.Ltmp157:
	movq	208(%rsp), %rbx
	testq	%rbx, %rbx
	je	.LBB48_41
	movq	216(%rsp), %r15
	movq	224(%rsp), %rbp
	leaq	64(%rsp), %rdi
	movq	%rbx, %rsi
	movq	%rbp, %rdx
	callq	_ZN4core3str8converts9from_utf817h3b89813707b77e55E
	cmpl	$1, 64(%rsp)
	jne	.LBB48_23
	testq	%rbx, %rbx
	je	.LBB48_41
	testq	%r15, %r15
	je	.LBB48_41
	movq	%rbx, %rdi
	callq	*free@GOTPCREL(%rip)
	jmp	.LBB48_41
.LBB48_23:
	movb	$1, %r14b
	testq	%rbp, %rbp
	je	.LBB48_28
	movb	(%rbx), %al
	cmpb	$45, %al
	je	.LBB48_29
	cmpb	$43, %al
	jne	.LBB48_31
	addq	$-1, %rbp
	je	.LBB48_28
	leaq	1(%rbx), %rcx
	jmp	.LBB48_32
.LBB48_29:
	movq	%rbx, %rcx
	cmpq	$1, %rbp
	jne	.LBB48_32
.LBB48_28:
	testq	%r15, %r15
	jne	.LBB48_39
	jmp	.LBB48_40
.LBB48_31:
	movq	%rbx, %rcx
.LBB48_32:
	xorl	%esi, %esi
	xorl	%eax, %eax
	.p2align	4, 0x90
.LBB48_33:
	movq	%rax, %r13
	cmpq	%rsi, %rbp
	je	.LBB48_37
	movzbl	(%rcx,%rsi), %edi
	addl	$-48, %edi
	cmpl	$9, %edi
	ja	.LBB48_38
	movq	%r13, %rax
	movl	$10, %edx
	mulq	%rdx
	jo	.LBB48_38
	movl	%edi, %edx
	addq	$1, %rsi
	addq	%rdx, %rax
	jae	.LBB48_33
.LBB48_38:
	testq	%r15, %r15
	je	.LBB48_40
.LBB48_39:
	movq	%rbx, %rdi
	callq	*free@GOTPCREL(%rip)
.LBB48_40:
	testb	%r14b, %r14b
	je	.LBB48_42
	.p2align	4, 0x90
.LBB48_41:
	movl	$2097152, %r13d
.LBB48_42:
	leaq	1(%r13), %rax
	xchgq	%rax, _ZN3std10sys_common6thread9min_stack3MIN17hc3dd7655e2e455a0E(%rip)
.LBB48_43:
	movq	336(%rsp), %rax
	movq	%rax, 80(%rsp)
	movdqu	320(%rsp), %xmm0
	movdqa	%xmm0, 64(%rsp)
.Ltmp159:
	leaq	64(%rsp), %rdi
	callq	_ZN3std6thread6Thread3new17h4590feb8fe88131dE
.Ltmp160:
	movq	%rax, 344(%rsp)
	lock		addq	$1, (%rax)
	jle	.LBB48_360
	movq	%rax, 464(%rsp)
	movl	$40, %edi
	callq	*malloc@GOTPCREL(%rip)
	testq	%rax, %rax
	je	.LBB48_86
	movaps	.LCPI48_1(%rip), %xmm0
	movups	%xmm0, (%rax)
	movq	$2, 16(%rax)
	movdqu	64(%rsp), %xmm0
	movdqu	%xmm0, 24(%rax)
	movq	%rax, 368(%rsp)
	lock		addq	$1, (%rax)
	jle	.LBB48_360
	movq	%rax, 472(%rsp)
	movb	_ZN3std2io5stdio19OUTPUT_CAPTURE_USED17hf7d0c754c69bb692E.0.0.llvm.12602067952453011377(%rip), %al
	testb	%al, %al
	je	.LBB48_50
	movb	$1, _ZN3std2io5stdio19OUTPUT_CAPTURE_USED17hf7d0c754c69bb692E.0.0.llvm.12602067952453011377(%rip)
	movq	$0, 64(%rsp)
	cmpl	$1, %fs:_ZN3std2io5stdio14OUTPUT_CAPTURE7__getit5__KEY17hbc11b3a23187f3a9E@TPOFF
	jne	.LBB48_51
	movq	%fs:0, %rax
	leaq	_ZN3std2io5stdio14OUTPUT_CAPTURE7__getit5__KEY17hbc11b3a23187f3a9E@TPOFF+8(%rax), %rax
	jmp	.LBB48_53
	.p2align	4, 0x90
.LBB48_50:
	movq	$0, 448(%rsp)
	jmp	.LBB48_55
	.p2align	4, 0x90
.LBB48_51:
.Ltmp162:
	callq	_ZN3std6thread5local4fast12Key$LT$T$GT$14try_initialize17h61a59aebbb653127E.llvm.783488666902379826
.Ltmp163:
	testq	%rax, %rax
	je	.LBB48_101
.LBB48_53:
	movq	(%rax), %rdi
	movq	$0, (%rax)
	movq	%rdi, 448(%rsp)
	testq	%rdi, %rdi
	je	.LBB48_55
	lock		addq	$1, (%rdi)
	jg	.LBB48_56
	jmp	.LBB48_360
	.p2align	4, 0x90
.LBB48_55:
	xorl	%edi, %edi
.LBB48_56:
.Ltmp168:
	callq	_ZN3std2io5stdio18set_output_capture17h93978920033e0877E
.Ltmp169:
	movq	%rax, 64(%rsp)
	testq	%rax, %rax
	je	.LBB48_60
	lock		subq	$1, (%rax)
	jne	.LBB48_60
	#MEMBARRIER
	leaq	64(%rsp), %rdi
	callq	_ZN5alloc4sync12Arc$LT$T$GT$9drop_slow17hcaa08d5bc0dd82c3E
.LBB48_60:
	movq	464(%rsp), %rbp
	movq	448(%rsp), %r14
	movq	472(%rsp), %r15
	movq	440(%rsp), %rax
	movq	%rax, 80(%rsp)
	movups	424(%rsp), %xmm0
	movaps	%xmm0, 64(%rsp)
	movl	$48, %edi
	movq	malloc@GOTPCREL(%rip), %r12
	callq	*%r12
	testq	%rax, %rax
	je	.LBB48_98
	movq	%rax, %rbx
	movq	%rbp, (%rax)
	movq	%r14, 8(%rax)
	movdqa	64(%rsp), %xmm0
	movdqu	%xmm0, 16(%rax)
	movq	80(%rsp), %rax
	movq	%rax, 32(%rbx)
	movq	%r15, 40(%rbx)
	movl	$16, %edi
	callq	*%r12
	testq	%rax, %rax
	je	.LBB48_97
	movq	%rax, %r15
	movq	%rbx, (%rax)
	leaq	.L__unnamed_52(%rip), %rax
	movq	%rax, 8(%r15)
	movq	$0, 200(%rsp)
	pxor	%xmm0, %xmm0
	movdqa	%xmm0, 96(%rsp)
	movdqa	%xmm0, 80(%rsp)
	movdqa	%xmm0, 64(%rsp)
	movq	$0, 112(%rsp)
	leaq	64(%rsp), %rdi
	callq	*pthread_attr_init@GOTPCREL(%rip)
	movl	%eax, 28(%rsp)
	testl	%eax, %eax
	jne	.LBB48_87
	movl	$16384, %ebx
	movq	_ZN3std3sys4unix6thread14min_stack_size22__pthread_get_minstack17h931978dbdc898108E+16(%rip), %rcx
	testq	%rcx, %rcx
	je	.LBB48_68
	cmpq	$1, %rcx
	je	.LBB48_79
	#MEMBARRIER
	testq	%rcx, %rcx
	je	.LBB48_68
.LBB48_66:
.Ltmp179:
	leaq	64(%rsp), %rdi
	callq	*%rcx
.Ltmp180:
	movq	%rax, %rbx
.LBB48_68:
	cmpq	%r13, %rbx
	cmovbq	%r13, %rbx
	leaq	64(%rsp), %rdi
	movq	%rbx, %rsi
	callq	*pthread_attr_setstacksize@GOTPCREL(%rip)
	testl	%eax, %eax
	je	.LBB48_71
	movl	%eax, 460(%rsp)
	cmpl	$22, %eax
	jne	.LBB48_99
	movl	$30, %edi
	callq	*sysconf@GOTPCREL(%rip)
	leaq	(%rbx,%rax), %rsi
	addq	$-1, %rsi
	negq	%rax
	andq	%rax, %rsi
	leaq	64(%rsp), %rdi
	callq	*pthread_attr_setstacksize@GOTPCREL(%rip)
	movl	%eax, 28(%rsp)
	testl	%eax, %eax
	jne	.LBB48_100
.LBB48_71:
	leaq	200(%rsp), %rdi
	leaq	64(%rsp), %rbp
	movq	%rbp, %rsi
	leaq	_ZN3std3sys4unix6thread6Thread3new12thread_start17h1e196b2f9f15f40fE(%rip), %rdx
	movq	%r15, %rcx
	callq	*pthread_create@GOTPCREL(%rip)
	movl	%eax, %ebx
	movq	%rbp, %rdi
	callq	*pthread_attr_destroy@GOTPCREL(%rip)
	movl	%eax, 28(%rsp)
	testl	%eax, %eax
	jne	.LBB48_88
	testl	%ebx, %ebx
	jne	.LBB48_89
	movq	200(%rsp), %rdi
	movq	344(%rsp), %rbx
	movq	368(%rsp), %rax
	movq	%rdi, 392(%rsp)
	movq	$1, 384(%rsp)
	movq	%rbx, 400(%rsp)
	movq	%rax, 408(%rsp)
	callq	*pthread_detach@GOTPCREL(%rip)
	lock		subq	$1, (%rbx)
	jne	.LBB48_75
	#MEMBARRIER
	leaq	400(%rsp), %rdi
	callq	_ZN5alloc4sync12Arc$LT$T$GT$9drop_slow17h90a9d120b17fc657E
.LBB48_75:
	movq	408(%rsp), %rax
	lock		subq	$1, (%rax)
	jne	.LBB48_77
	#MEMBARRIER
.Ltmp202:
	leaq	408(%rsp), %rdi
	callq	_ZN5alloc4sync12Arc$LT$T$GT$9drop_slow17h4362465d5653348dE
.Ltmp203:
.LBB48_77:
	movq	480(%rsp), %rdx
	cmpq	192(%rsp), %rdx
	je	.LBB48_85
	movq	376(%rsp), %rax
	leaq	1(%rdx), %rcx
	lock		addq	$1, 16(%rax)
	movq	%rdx, %rax
	jg	.LBB48_14
	jmp	.LBB48_360
.LBB48_79:
	leaq	_ZN3std3sys4unix6thread14min_stack_size22__pthread_get_minstack17h931978dbdc898108E(%rip), %rdi
	callq	_ZN3std3sys4unix4weak13Weak$LT$F$GT$10initialize17h58eab2d5ffb6d138E.llvm.3665587211081696008
	movq	%rax, %rcx
	testq	%rcx, %rcx
	jne	.LBB48_66
	jmp	.LBB48_68
.LBB48_37:
	xorl	%r14d, %r14d
	testq	%r15, %r15
	jne	.LBB48_39
	jmp	.LBB48_40
.LBB48_81:
	xorl	%eax, %eax
	.p2align	4, 0x90
.LBB48_82:
	movq	%rax, %rcx
	shrq	$6, %rcx
	movq	64(%rsp,%rcx,8), %rcx
	movl	%eax, %edx
	andb	$62, %dl
	movzbl	%dl, %edx
	btq	%rdx, %rcx
	adcl	$0, %ebp
	addq	$2, %rax
	orb	$1, %dl
	movzbl	%dl, %edx
	btq	%rdx, %rcx
	adcl	$0, %ebp
	cmpq	$1024, %rax
	jne	.LBB48_82
	testl	%ebp, %ebp
	je	.LBB48_85
	movl	%ebp, %eax
	movq	%rax, 192(%rsp)
	lock		addq	$1, 16(%rbx)
	jg	.LBB48_13
	jmp	.LBB48_360
.LBB48_85:
	movq	352(%rsp), %rax
	leaq	.LJTI48_0(%rip), %r12
	movslq	(%r12,%rax,4), %rax
	addq	%r12, %rax
	jmpq	*%rax
.LBB48_86:
	movl	$40, %edi
	movl	$8, %esi
	callq	_ZN5alloc5alloc18handle_alloc_error17h66207f37c5e1158cE
	ud2
.LBB48_87:
	leaq	28(%rsp), %rax
	movq	%rax, 16(%rsp)
	leaq	.Lanon.44270d117240652e2c29b279aed00257.124(%rip), %rax
	movq	%rax, 8(%rsp)
	leaq	16(%rsp), %rax
	movq	%rax, 32(%rsp)
	leaq	_ZN42_$LT$$RF$T$u20$as$u20$core..fmt..Debug$GT$3fmt17hd9d6b3cbf9380777E(%rip), %rax
	movq	%rax, 40(%rsp)
	leaq	8(%rsp), %rcx
	movq	%rcx, 48(%rsp)
	movq	%rax, 56(%rsp)
	leaq	anon.44270d117240652e2c29b279aed00257.126.llvm.3683828415613454216(%rip), %rax
	movq	%rax, 208(%rsp)
	movq	$3, 216(%rsp)
	movq	$0, 224(%rsp)
	leaq	32(%rsp), %rax
	movq	%rax, 240(%rsp)
	movq	$2, 248(%rsp)
.Ltmp177:
	leaq	.Lanon.44270d117240652e2c29b279aed00257.128(%rip), %rsi
	leaq	208(%rsp), %rdi
	callq	_ZN4core9panicking9panic_fmt17h88d1befd03709389E
.Ltmp178:
	jmp	.LBB48_102
.LBB48_88:
	leaq	28(%rsp), %rax
	movq	%rax, 16(%rsp)
	leaq	.Lanon.44270d117240652e2c29b279aed00257.124(%rip), %rax
	movq	%rax, 8(%rsp)
	leaq	16(%rsp), %rax
	movq	%rax, 32(%rsp)
	leaq	_ZN42_$LT$$RF$T$u20$as$u20$core..fmt..Debug$GT$3fmt17hd9d6b3cbf9380777E(%rip), %rax
	movq	%rax, 40(%rsp)
	leaq	8(%rsp), %rcx
	movq	%rcx, 48(%rsp)
	movq	%rax, 56(%rsp)
	leaq	anon.44270d117240652e2c29b279aed00257.126.llvm.3683828415613454216(%rip), %rax
	movq	%rax, 208(%rsp)
	movq	$3, 216(%rsp)
	movq	$0, 224(%rsp)
	leaq	32(%rsp), %rax
	movq	%rax, 240(%rsp)
	movq	$2, 248(%rsp)
.Ltmp186:
	leaq	.Lanon.44270d117240652e2c29b279aed00257.132(%rip), %rsi
	leaq	208(%rsp), %rdi
	callq	_ZN4core9panicking9panic_fmt17h88d1befd03709389E
.Ltmp187:
	jmp	.LBB48_102
.LBB48_89:
	movq	(%r15), %rdi
	movq	8(%r15), %rax
.Ltmp189:
	callq	*(%rax)
.Ltmp190:
	movq	8(%r15), %rax
	cmpq	$0, 8(%rax)
	je	.LBB48_92
	movq	(%r15), %rdi
	callq	*free@GOTPCREL(%rip)
.LBB48_92:
	movq	%r15, %rdi
	callq	*free@GOTPCREL(%rip)
	movq	368(%rsp), %rax
	lock		subq	$1, (%rax)
	jne	.LBB48_94
	#MEMBARRIER
.Ltmp194:
	leaq	368(%rsp), %rdi
	callq	_ZN5alloc4sync12Arc$LT$T$GT$9drop_slow17h4362465d5653348dE
.Ltmp195:
.LBB48_94:
	shlq	$32, %rbx
	movq	344(%rsp), %rax
	lock		subq	$1, (%rax)
	jne	.LBB48_96
	#MEMBARRIER
	leaq	344(%rsp), %rdi
	callq	_ZN5alloc4sync12Arc$LT$T$GT$9drop_slow17h90a9d120b17fc657E
.LBB48_96:
	movq	%rbx, 64(%rsp)
	movq	$0, 72(%rsp)
.Ltmp197:
	leaq	.L__unnamed_53(%rip), %rdi
	leaq	.L__unnamed_54(%rip), %rcx
	leaq	.L__unnamed_55(%rip), %r8
	leaq	64(%rsp), %rdx
	movl	$22, %esi
	callq	_ZN4core6result13unwrap_failed17h9cb4e8dca1981ba0E
.Ltmp198:
	jmp	.LBB48_102
.LBB48_97:
	movl	$16, %edi
	movl	$8, %esi
	callq	_ZN5alloc5alloc18handle_alloc_error17h66207f37c5e1158cE
	ud2
.LBB48_98:
	movl	$48, %edi
	movl	$8, %esi
	callq	_ZN5alloc5alloc18handle_alloc_error17h66207f37c5e1158cE
	ud2
.LBB48_99:
	leaq	460(%rsp), %rax
	movq	%rax, 16(%rsp)
	leaq	.Lanon.44270d117240652e2c29b279aed00257.129(%rip), %rax
	movq	%rax, 8(%rsp)
	leaq	16(%rsp), %rax
	movq	%rax, 32(%rsp)
	leaq	_ZN42_$LT$$RF$T$u20$as$u20$core..fmt..Debug$GT$3fmt17hd9d6b3cbf9380777E(%rip), %rax
	movq	%rax, 40(%rsp)
	leaq	8(%rsp), %rcx
	movq	%rcx, 48(%rsp)
	movq	%rax, 56(%rsp)
	leaq	anon.44270d117240652e2c29b279aed00257.126.llvm.3683828415613454216(%rip), %rax
	movq	%rax, 208(%rsp)
	movq	$3, 216(%rsp)
	movq	$0, 224(%rsp)
	leaq	32(%rsp), %rax
	movq	%rax, 240(%rsp)
	movq	$2, 248(%rsp)
.Ltmp182:
	leaq	.Lanon.44270d117240652e2c29b279aed00257.130(%rip), %rsi
	leaq	208(%rsp), %rdi
	callq	_ZN4core9panicking9panic_fmt17h88d1befd03709389E
.Ltmp183:
	jmp	.LBB48_102
.LBB48_100:
	leaq	28(%rsp), %rax
	movq	%rax, 16(%rsp)
	leaq	.Lanon.44270d117240652e2c29b279aed00257.124(%rip), %rax
	movq	%rax, 8(%rsp)
	leaq	16(%rsp), %rax
	movq	%rax, 32(%rsp)
	leaq	_ZN42_$LT$$RF$T$u20$as$u20$core..fmt..Debug$GT$3fmt17hd9d6b3cbf9380777E(%rip), %rax
	movq	%rax, 40(%rsp)
	leaq	8(%rsp), %rcx
	movq	%rcx, 48(%rsp)
	movq	%rax, 56(%rsp)
	leaq	anon.44270d117240652e2c29b279aed00257.126.llvm.3683828415613454216(%rip), %rax
	movq	%rax, 208(%rsp)
	movq	$3, 216(%rsp)
	movq	$0, 224(%rsp)
	leaq	32(%rsp), %rax
	movq	%rax, 240(%rsp)
	movq	$2, 248(%rsp)
.Ltmp184:
	leaq	.Lanon.44270d117240652e2c29b279aed00257.131(%rip), %rsi
	leaq	208(%rsp), %rdi
	callq	_ZN4core9panicking9panic_fmt17h88d1befd03709389E
.Ltmp185:
	jmp	.LBB48_102
.LBB48_101:
.Ltmp165:
	leaq	anon.e41260ae20b75565edfc061c00c094c2.33.llvm.9647977104380098909(%rip), %rdi
	leaq	anon.e41260ae20b75565edfc061c00c094c2.17.llvm.9647977104380098909(%rip), %rcx
	leaq	anon.e41260ae20b75565edfc061c00c094c2.35.llvm.9647977104380098909(%rip), %r8
	leaq	8(%rsp), %rdx
	movl	$70, %esi
	callq	_ZN4core6result13unwrap_failed17h9cb4e8dca1981ba0E
.Ltmp166:
.LBB48_102:
	ud2
.LBB48_103:
	movl	$64, %edi
	movl	$8, %esi
	callq	_ZN5alloc5alloc18handle_alloc_error17h66207f37c5e1158cE
	ud2
.LBB48_104:
	movl	%eax, %eax
	shlq	$24, %rax
	movb	$0, 64(%rsp)
	movq	%rax, 65(%rsp)
	movb	$0, 79(%rsp)
	movw	$0, 77(%rsp)
	movl	$0, 73(%rsp)
.Ltmp137:
	leaq	anon.03fa34025239a254ab5d789983420479.13.llvm.783488666902379826(%rip), %rdi
	leaq	anon.0bc4b03b1367d57f1fe2ddddf8bed743.3.llvm.12602067952453011377(%rip), %rcx
	leaq	anon.0bc4b03b1367d57f1fe2ddddf8bed743.56.llvm.12602067952453011377(%rip), %r8
	leaq	64(%rsp), %rdx
	movl	$43, %esi
	callq	_ZN4core6result13unwrap_failed17h9cb4e8dca1981ba0E
.Ltmp138:
	jmp	.LBB48_102
.LBB48_105:
	movl	%eax, %eax
	shlq	$24, %rax
	movb	$0, 64(%rsp)
	movq	%rax, 65(%rsp)
	movb	$0, 79(%rsp)
	movw	$0, 77(%rsp)
	movl	$0, 73(%rsp)
.Ltmp143:
	leaq	anon.03fa34025239a254ab5d789983420479.13.llvm.783488666902379826(%rip), %rdi
	leaq	anon.0bc4b03b1367d57f1fe2ddddf8bed743.3.llvm.12602067952453011377(%rip), %rcx
	leaq	anon.0bc4b03b1367d57f1fe2ddddf8bed743.57.llvm.12602067952453011377(%rip), %r8
	leaq	64(%rsp), %rdx
	movl	$43, %esi
	callq	_ZN4core6result13unwrap_failed17h9cb4e8dca1981ba0E
.Ltmp144:
	jmp	.LBB48_102
.LBB48_106:
	movl	%eax, %eax
	shlq	$24, %rax
	movb	$0, 64(%rsp)
	movq	%rax, 65(%rsp)
	movb	$0, 79(%rsp)
	movw	$0, 77(%rsp)
	movl	$0, 73(%rsp)
.Ltmp148:
	leaq	anon.03fa34025239a254ab5d789983420479.13.llvm.783488666902379826(%rip), %rdi
	leaq	anon.0bc4b03b1367d57f1fe2ddddf8bed743.3.llvm.12602067952453011377(%rip), %rcx
	leaq	anon.0bc4b03b1367d57f1fe2ddddf8bed743.58.llvm.12602067952453011377(%rip), %r8
	leaq	64(%rsp), %rdx
	movl	$43, %esi
	callq	_ZN4core6result13unwrap_failed17h9cb4e8dca1981ba0E
.Ltmp149:
	jmp	.LBB48_102
.LBB48_107:
	movl	$136, %edi
	movl	$8, %esi
	callq	_ZN5alloc5alloc18handle_alloc_error17h66207f37c5e1158cE
	ud2
.LBB48_108:
.Ltmp150:
	movq	%rax, %rbx
.Ltmp151:
	leaq	64(%rsp), %rdi
	callq	_ZN4core3ptr13drop_in_place17h1876b58dff8f0243E
.Ltmp152:
	jmp	.LBB48_110
.LBB48_109:
.Ltmp145:
	movq	%rax, %rbx
.Ltmp146:
	leaq	64(%rsp), %rdi
	callq	_ZN4core3ptr13drop_in_place17h1876b58dff8f0243E
.Ltmp147:
.LBB48_110:
	leaq	32(%rsp), %rdi
	callq	_ZN4core3ptr13drop_in_place17hdaa0c6bc8f61256bE.llvm.12602067952453011377
	jmp	.LBB48_113
.LBB48_111:
.Ltmp153:
	movq	%rax, %rbx
	jmp	.LBB48_110
.LBB48_112:
.Ltmp139:
	movq	%rax, %rbx
.Ltmp140:
	leaq	64(%rsp), %rdi
	callq	_ZN4core3ptr13drop_in_place17h1876b58dff8f0243E
.Ltmp141:
.LBB48_113:
	leaq	384(%rsp), %rdi
	callq	_ZN4core3ptr13drop_in_place17hc6b1b151135dfa39E.llvm.12602067952453011377
	leaq	208(%rsp), %rdi
	callq	_ZN4core3ptr13drop_in_place17h1049ef95f2b1fb74E
	jmp	.LBB48_136
.LBB48_114:
.Ltmp142:
	movq	%rax, %rbx
	jmp	.LBB48_113
.LBB48_115:
.Ltmp167:
	movq	%rax, %rbx
	jmp	.LBB48_130
.LBB48_116:
.Ltmp196:
	movq	%rax, %rbx
	jmp	.LBB48_124
.LBB48_117:
.Ltmp199:
	movq	%rax, %rbx
.Ltmp200:
	leaq	64(%rsp), %rdi
	callq	_ZN4core3ptr13drop_in_place17h1876b58dff8f0243E
.Ltmp201:
	jmp	.LBB48_134
.LBB48_118:
.Ltmp191:
	movq	%rax, %rbx
	movq	(%r15), %rdi
	movq	8(%r15), %rax
	movq	8(%rax), %rsi
	callq	_ZN5alloc5alloc8box_free17h292378dea4494778E
	movq	%r15, %rdi
	callq	_ZN5alloc5alloc8box_free17h3288cca7f93057b7E.llvm.12602067952453011377
	jmp	.LBB48_123
.LBB48_119:
.Ltmp188:
	jmp	.LBB48_122
.LBB48_120:
.Ltmp164:
	movq	%rax, %rbx
	leaq	64(%rsp), %rdi
	callq	_ZN4core3ptr13drop_in_place17heff667dffb1e305fE.llvm.9647977104380098909
	jmp	.LBB48_130
.LBB48_121:
.Ltmp181:
.LBB48_122:
	movq	%rax, %rbx
.LBB48_123:
.Ltmp192:
	leaq	368(%rsp), %rdi
	callq	_ZN4core3ptr13drop_in_place17hab28c41aa9648dd1E
.Ltmp193:
.LBB48_124:
	leaq	344(%rsp), %rdi
	callq	_ZN4core3ptr13drop_in_place17hb6fa37f944447a1bE
	jmp	.LBB48_134
.LBB48_125:
.Ltmp158:
	movq	%rax, %rbx
	leaq	320(%rsp), %rdi
	callq	_ZN4core3ptr13drop_in_place17h3ab0f8717a52b523E
	jmp	.LBB48_133
.LBB48_126:
.Ltmp204:
.LBB48_127:
	movq	%rax, %rbx
	jmp	.LBB48_134
.LBB48_128:
.Ltmp161:
	movq	%rax, %rbx
	jmp	.LBB48_133
.LBB48_129:
.Ltmp170:
	movq	%rax, %rbx
	leaq	448(%rsp), %rdi
	callq	_ZN4core3ptr13drop_in_place17ha063e275a20bc99aE
.LBB48_130:
.Ltmp171:
	leaq	472(%rsp), %rdi
	callq	_ZN4core3ptr13drop_in_place17hab28c41aa9648dd1E
.Ltmp172:
.Ltmp173:
	leaq	368(%rsp), %rdi
	callq	_ZN4core3ptr13drop_in_place17hab28c41aa9648dd1E
.Ltmp174:
	leaq	464(%rsp), %rdi
	callq	_ZN4core3ptr13drop_in_place17hb6fa37f944447a1bE
	leaq	344(%rsp), %rdi
	callq	_ZN4core3ptr13drop_in_place17hb6fa37f944447a1bE
.LBB48_133:
.Ltmp175:
	leaq	424(%rsp), %rdi
	callq	_ZN4core3ptr13drop_in_place17ha1099a35ea508b21E
.Ltmp176:
.LBB48_134:
	leaq	352(%rsp), %rdi
	callq	_ZN4core3ptr13drop_in_place17h43ac3631ab207fe0E
.LBB48_135:
	leaq	376(%rsp), %rdi
	callq	_ZN4core3ptr13drop_in_place17h2f562d6787bbd004E
.LBB48_136:
	movq	%rbx, %rdi
	callq	_Unwind_Resume@PLT
	ud2
.LBB48_360:
	ud2
	ud2
.LBB48_137:
	movq	360(%rsp), %rbp
	movq	24(%rbp), %rdi
	callq	*pthread_mutex_lock@GOTPCREL(%rip)
	movq	_ZN3std9panicking11panic_count18GLOBAL_PANIC_COUNT17h3b25e77861be4659E(%rip), %rax
	testq	%rax, %rax
	jne	.LBB48_199
	xorl	%r15d, %r15d
	leaq	24(%rbp), %rcx
	movb	32(%rbp), %al
	testb	%al, %al
	jne	.LBB48_200
.LBB48_139:
	movq	%rcx, 32(%rsp)
	movb	%r15b, 40(%rsp)
	cmpb	$0, 128(%rbp)
	movq	104(%rbp), %rax
	je	.LBB48_147
	xorl	%r8d, %r8d
.LBB48_141:
	testq	%rax, %rax
	jne	.LBB48_149
	movq	%rcx, %rbx
	testb	%r15b, %r15b
	jne	.LBB48_146
	movq	_ZN3std9panicking11panic_count18GLOBAL_PANIC_COUNT17h3b25e77861be4659E(%rip), %rax
	testq	%rax, %rax
	je	.LBB48_146
	callq	_ZN3std9panicking11panic_count17is_zero_slow_path17h114aac63407c5996E
	testb	%al, %al
	jne	.LBB48_146
	movb	$1, 32(%rbp)
.LBB48_146:
	movq	(%rbx), %rdi
	callq	*pthread_mutex_unlock@GOTPCREL(%rip)
	jmp	.LBB48_225
.LBB48_147:
	testq	%rax, %rax
	je	.LBB48_186
	xorl	%r8d, %r8d
.LBB48_149:
	movq	88(%rbp), %rsi
	movq	96(%rbp), %rdi
	addq	$-1, %rax
	movq	%rax, 104(%rbp)
	testq	%rsi, %rsi
	je	.LBB48_207
	leaq	1(%rdi), %rax
	movq	%rax, %rdx
	orq	%rsi, %rdx
	shrq	$32, %rdx
	je	.LBB48_162
	xorl	%edx, %edx
	divq	%rsi
	movq	%rdx, 96(%rbp)
	cmpq	%rdi, %rsi
	jbe	.LBB48_163
.LBB48_152:
	movq	72(%rbp), %rax
	shlq	$4, %rdi
	movq	8(%rax,%rdi), %rbx
	cmpq	$0, (%rax,%rdi)
	movq	$0, (%rax,%rdi)
	je	.LBB48_208
	movq	%rcx, 208(%rsp)
	movb	%r15b, 216(%rsp)
	movq	40(%rbp), %rax
	testq	%rax, %rax
	je	.LBB48_164
	movq	8(%rax), %rdx
	movq	%rdx, 40(%rbp)
	testq	%rdx, %rdx
	jne	.LBB48_156
	movq	$0, 48(%rbp)
.LBB48_156:
	movq	$0, 8(%rax)
	movq	(%rax), %r13
	movq	$0, (%rax)
	testq	%r13, %r13
	je	.LBB48_209
	xorl	%r12d, %r12d
	movq	%r13, 320(%rsp)
	testb	%r8b, %r8b
	jne	.LBB48_165
.LBB48_158:
	cmpq	$0, 112(%rbp)
	movl	$0, %r14d
	jne	.LBB48_166
	movq	56(%rbp), %rax
	movq	64(%rbp), %r12
	movq	$2, 56(%rbp)
	movq	%rax, 64(%rsp)
	movq	%r12, 72(%rsp)
	testq	%rax, %rax
	je	.LBB48_167
	xorl	%r12d, %r12d
	cmpq	$2, %rax
	jne	.LBB48_161
	movq	%r12, %r14
	testb	%r15b, %r15b
	jne	.LBB48_170
	jmp	.LBB48_169
.LBB48_162:
	xorl	%edx, %edx
	divl	%esi
	movq	%rdx, 96(%rbp)
	cmpq	%rdi, %rsi
	ja	.LBB48_152
.LBB48_163:
.Ltmp219:
	leaq	.L__unnamed_15(%rip), %rdx
	callq	_ZN4core9panicking18panic_bounds_check17h5de496fbf8268208E
.Ltmp220:
	jmp	.LBB48_102
.LBB48_164:
	xorl	%r13d, %r13d
	xorl	%r12d, %r12d
	movq	%r13, 320(%rsp)
	testb	%r8b, %r8b
	je	.LBB48_158
.LBB48_165:
	xorl	%r14d, %r14d
.LBB48_166:
	testb	%r15b, %r15b
	jne	.LBB48_170
.LBB48_169:
	movq	_ZN3std9panicking11panic_count18GLOBAL_PANIC_COUNT17h3b25e77861be4659E(%rip), %rax
	testq	%rax, %rax
	je	.LBB48_170
	movq	%rcx, %r15
	callq	_ZN3std9panicking11panic_count17is_zero_slow_path17h114aac63407c5996E
	movq	%r15, %rcx
	testb	%al, %al
	jne	.LBB48_170
	movb	$1, 32(%rbp)
	jmp	.LBB48_170
.LBB48_167:
	movq	$0, 120(%rbp)
	movq	%r12, %r14
	testb	%r15b, %r15b
	je	.LBB48_169
.LBB48_170:
	movq	(%rcx), %rdi
	callq	*pthread_mutex_unlock@GOTPCREL(%rip)
	testq	%r13, %r13
	je	.LBB48_177
	movq	%r13, 64(%rsp)
	movb	$1, %cl
	xorl	%eax, %eax
	lock		cmpxchgb	%cl, 24(%r13)
	jne	.LBB48_174
	movq	64(%rsp), %rax
	movq	16(%rax), %rsi
	movl	$1, %eax
	xchgl	%eax, 40(%rsi)
	cmpl	$-1, %eax
	jne	.LBB48_174
	addq	$40, %rsi
	movl	$202, %edi
	movl	$129, %edx
	movl	$1, %ecx
	xorl	%eax, %eax
	callq	*syscall@GOTPCREL(%rip)
.LBB48_174:
	movq	64(%rsp), %rax
	lock		subq	$1, (%rax)
	jne	.LBB48_176
	#MEMBARRIER
	leaq	64(%rsp), %rdi
	callq	_ZN5alloc4sync12Arc$LT$T$GT$9drop_slow17h1e82fdada470bc6dE
.LBB48_176:
	movb	$1, %bpl
	movq	%r12, %r14
	testq	%r14, %r14
	jne	.LBB48_178
	jmp	.LBB48_183
.LBB48_177:
	xorl	%ebp, %ebp
	testq	%r14, %r14
	je	.LBB48_183
.LBB48_178:
	movq	%r12, 64(%rsp)
	movb	$1, %cl
	xorl	%eax, %eax
	lock		cmpxchgb	%cl, 24(%r12)
	jne	.LBB48_181
	movq	64(%rsp), %rax
	movq	16(%rax), %rsi
	movl	$1, %eax
	xchgl	%eax, 40(%rsi)
	cmpl	$-1, %eax
	jne	.LBB48_181
	addq	$40, %rsi
	movl	$202, %edi
	movl	$129, %edx
	movl	$1, %ecx
	xorl	%eax, %eax
	callq	*syscall@GOTPCREL(%rip)
.LBB48_181:
	movq	64(%rsp), %rax
	lock		subq	$1, (%rax)
	jne	.LBB48_183
	#MEMBARRIER
	leaq	64(%rsp), %rdi
	callq	_ZN5alloc4sync12Arc$LT$T$GT$9drop_slow17h1e82fdada470bc6dE
.LBB48_183:
	movq	320(%rsp), %rax
	testq	%rax, %rax
	sete	%cl
	orb	%cl, %bpl
	jne	.LBB48_226
	lock		subq	$1, (%rax)
	jne	.LBB48_226
	#MEMBARRIER
	leaq	320(%rsp), %rdi
	callq	_ZN5alloc4sync12Arc$LT$T$GT$9drop_slow17h1e82fdada470bc6dE
	jmp	.LBB48_226
.LBB48_186:
	movq	%rcx, %r12
	movq	%rcx, 208(%rsp)
	movb	%r15b, 216(%rsp)
.Ltmp208:
	callq	_ZN3std10sys_common11thread_info14current_thread17h71fa6eaac75827abE
.Ltmp209:
	movq	%rax, %r14
	testq	%rax, %rax
	je	.LBB48_210
	movl	$32, %edi
	callq	*malloc@GOTPCREL(%rip)
	testq	%rax, %rax
	je	.LBB48_224
	movq	%rax, %rbx
	movaps	.LCPI48_1(%rip), %xmm0
	movups	%xmm0, (%rax)
	movq	%r14, 16(%rax)
	movb	$0, 24(%rax)
	movl	64(%rsp), %eax
	movl	67(%rsp), %ecx
	movl	%eax, 25(%rbx)
	movl	%ecx, 28(%rbx)
	lock		addq	$1, (%rbx)
	jle	.LBB48_360
	movq	%rbx, 320(%rsp)
	movdqu	56(%rbp), %xmm0
	movq	$1, 56(%rbp)
	movq	%rbx, 64(%rbp)
	movdqa	%xmm0, 64(%rsp)
	movq	%xmm0, %rax
	cmpq	$2, %rax
	jne	.LBB48_211
	movq	%r12, %rcx
	testb	%r15b, %r15b
	jne	.LBB48_193
	movq	_ZN3std9panicking11panic_count18GLOBAL_PANIC_COUNT17h3b25e77861be4659E(%rip), %rax
	testq	%rax, %rax
	jne	.LBB48_205
.LBB48_193:
	movq	(%rcx), %rdi
	movq	%rcx, %r14
	callq	*pthread_mutex_unlock@GOTPCREL(%rip)
.Ltmp213:
	movq	%rbx, %rdi
	callq	_ZN3std4sync4mpsc8blocking9WaitToken4wait17h8e6761468719f6d0E
.Ltmp214:
	movq	(%r14), %rdi
	callq	*pthread_mutex_lock@GOTPCREL(%rip)
	movq	_ZN3std9panicking11panic_count18GLOBAL_PANIC_COUNT17h3b25e77861be4659E(%rip), %rax
	testq	%rax, %rax
	jne	.LBB48_203
	xorl	%r15d, %r15d
	movb	32(%rbp), %al
	testb	%al, %al
	movq	%r12, %rcx
	jne	.LBB48_204
.LBB48_196:
	movq	%rcx, 32(%rsp)
	movb	%r15b, 40(%rsp)
	movq	104(%rbp), %rax
	movb	$1, %r8b
	cmpb	$0, 128(%rbp)
	jne	.LBB48_141
	movb	$1, %r8b
	testq	%rax, %rax
	jne	.LBB48_149
.Ltmp231:
	leaq	.L__unnamed_56(%rip), %rdi
	leaq	.L__unnamed_57(%rip), %rdx
	movl	$88, %esi
	callq	_ZN4core9panicking5panic17h879f53aa45bf615bE
.Ltmp232:
	jmp	.LBB48_102
.LBB48_199:
	callq	_ZN3std9panicking11panic_count17is_zero_slow_path17h114aac63407c5996E
	movl	%eax, %r15d
	xorb	$1, %r15b
	leaq	24(%rbp), %rcx
	movb	32(%rbp), %al
	testb	%al, %al
	je	.LBB48_139
.LBB48_200:
	movq	%rcx, 64(%rsp)
	movb	%r15b, 72(%rsp)
.Ltmp205:
	leaq	anon.03fa34025239a254ab5d789983420479.13.llvm.783488666902379826(%rip), %rdi
	leaq	.L__unnamed_3(%rip), %rcx
	leaq	.L__unnamed_58(%rip), %r8
	leaq	64(%rsp), %rdx
	movl	$43, %esi
	callq	_ZN4core6result13unwrap_failed17h9cb4e8dca1981ba0E
.Ltmp206:
	jmp	.LBB48_102
.LBB48_203:
	callq	_ZN3std9panicking11panic_count17is_zero_slow_path17h114aac63407c5996E
	movl	%eax, %r15d
	xorb	$1, %r15b
	movb	32(%rbp), %al
	testb	%al, %al
	movq	%r12, %rcx
	je	.LBB48_196
.LBB48_204:
	movq	%rcx, 64(%rsp)
	movb	%r15b, 72(%rsp)
.Ltmp216:
	leaq	anon.03fa34025239a254ab5d789983420479.13.llvm.783488666902379826(%rip), %rdi
	leaq	.L__unnamed_3(%rip), %rcx
	leaq	.L__unnamed_5(%rip), %r8
	leaq	64(%rsp), %rdx
	movl	$43, %esi
	callq	_ZN4core6result13unwrap_failed17h9cb4e8dca1981ba0E
.Ltmp217:
	jmp	.LBB48_102
.LBB48_205:
	callq	_ZN3std9panicking11panic_count17is_zero_slow_path17h114aac63407c5996E
	movq	%r12, %rcx
	testb	%al, %al
	jne	.LBB48_193
	movb	$1, 32(%rbp)
	jmp	.LBB48_193
.LBB48_207:
.Ltmp229:
	leaq	str.0(%rip), %rdi
	leaq	.L__unnamed_14(%rip), %rdx
	movl	$57, %esi
	callq	_ZN4core9panicking5panic17h879f53aa45bf615bE
.Ltmp230:
	jmp	.LBB48_102
.LBB48_208:
.Ltmp227:
	leaq	.Lanon.03fa34025239a254ab5d789983420479.9(%rip), %rdi
	leaq	.L__unnamed_16(%rip), %rdx
	movl	$43, %esi
	callq	_ZN4core9panicking5panic17h879f53aa45bf615bE
.Ltmp228:
	jmp	.LBB48_102
.LBB48_161:
.Ltmp224:
	leaq	.Lanon.239c3e3bdbdb80e76e08bceba4553aea.24(%rip), %rdi
	leaq	.L__unnamed_59(%rip), %rdx
	movl	$40, %esi
	callq	_ZN4core9panicking5panic17h879f53aa45bf615bE
.Ltmp225:
	jmp	.LBB48_102
.LBB48_209:
.Ltmp221:
	leaq	.Lanon.03fa34025239a254ab5d789983420479.9(%rip), %rdi
	leaq	.Lanon.03fa34025239a254ab5d789983420479.56(%rip), %rdx
	movl	$43, %esi
	callq	_ZN4core9panicking5panic17h879f53aa45bf615bE
.Ltmp222:
	jmp	.LBB48_102
.LBB48_210:
.Ltmp234:
	callq	_ZN4core6option13expect_failed17h35edea9229f0b68aE
.Ltmp235:
	jmp	.LBB48_102
.LBB48_211:
.Ltmp210:
	leaq	.Lanon.239c3e3bdbdb80e76e08bceba4553aea.24(%rip), %rdi
	leaq	.L__unnamed_13(%rip), %rdx
	movl	$40, %esi
	callq	_ZN4core9panicking5panic17h879f53aa45bf615bE
.Ltmp211:
	jmp	.LBB48_102
.LBB48_212:
.Ltmp212:
	movq	%rax, %rbx
	leaq	64(%rsp), %rdi
	callq	_ZN4core3ptr13drop_in_place17h2cf40ea805a77371E
	jmp	.LBB48_218
.LBB48_213:
.Ltmp218:
	jmp	.LBB48_216
.LBB48_214:
.Ltmp223:
	jmp	.LBB48_222
.LBB48_217:
.Ltmp226:
	movq	%rax, %rbx
	leaq	64(%rsp), %rdi
	callq	_ZN4core3ptr13drop_in_place17h2cf40ea805a77371E
	testq	%r13, %r13
	je	.LBB48_223
.LBB48_218:
	leaq	320(%rsp), %rdi
	callq	_ZN4core3ptr13drop_in_place17h6f32fe250bbc628cE
	jmp	.LBB48_223
.LBB48_215:
.Ltmp207:
.LBB48_216:
	movq	%rax, %rbx
	leaq	64(%rsp), %rdi
	callq	_ZN4core3ptr13drop_in_place17h451c6c51a559d151E
	jmp	.LBB48_134
.LBB48_219:
.Ltmp233:
	movq	%rax, %rbx
	leaq	32(%rsp), %rdi
	callq	_ZN4core3ptr13drop_in_place17h4724952f873bf679E
	jmp	.LBB48_134
.LBB48_220:
.Ltmp215:
	jmp	.LBB48_127
.LBB48_221:
.Ltmp236:
.LBB48_222:
	movq	%rax, %rbx
.LBB48_223:
	leaq	208(%rsp), %rdi
	callq	_ZN4core3ptr13drop_in_place17h4724952f873bf679E
	jmp	.LBB48_134
.LBB48_225:
.Ltmp311:
	leaq	anon.03fa34025239a254ab5d789983420479.13.llvm.783488666902379826(%rip), %rdi
	leaq	.L__unnamed_60(%rip), %rcx
	leaq	.L__unnamed_61(%rip), %r8
	leaq	8(%rsp), %rdx
	movl	$43, %esi
	callq	_ZN4core6result13unwrap_failed17h9cb4e8dca1981ba0E
.Ltmp312:
	jmp	.LBB48_102
.LBB48_226:
	movq	%rbx, 424(%rsp)
	leaq	424(%rsp), %rax
	movq	%rax, 320(%rsp)
	leaq	_ZN4core3fmt3num3imp52_$LT$impl$u20$core..fmt..Display$u20$for$u20$u64$GT$3fmt17h4edfa60b6cc4e39cE(%rip), %rax
	movq	%rax, 328(%rsp)
	leaq	.Lanon.0bc4b03b1367d57f1fe2ddddf8bed743.33(%rip), %rax
	movq	%rax, 384(%rsp)
	movq	$6, 392(%rsp)
	movb	_ZN3std2io5stdio19OUTPUT_CAPTURE_USED17hf7d0c754c69bb692E.0.0.llvm.12602067952453011377(%rip), %al
	testb	%al, %al
	je	.LBB48_241
	cmpl	$1, %fs:_ZN3std2io5stdio14OUTPUT_CAPTURE7__getit5__KEY17hbc11b3a23187f3a9E@TPOFF
	jne	.LBB48_229
	movq	%fs:0, %rax
	leaq	_ZN3std2io5stdio14OUTPUT_CAPTURE7__getit5__KEY17hbc11b3a23187f3a9E@TPOFF+8(%rax), %rbx
	jmp	.LBB48_231
.LBB48_229:
.Ltmp279:
	callq	_ZN3std6thread5local4fast12Key$LT$T$GT$14try_initialize17h61a59aebbb653127E.llvm.783488666902379826
.Ltmp280:
	movq	%rax, %rbx
	testq	%rax, %rax
	je	.LBB48_241
.LBB48_231:
	movq	(%rbx), %rbp
	movq	$0, (%rbx)
	testq	%rbp, %rbp
	je	.LBB48_241
	movq	%rbp, 32(%rsp)
	leaq	16(%rbp), %r12
	movq	16(%rbp), %rdi
	callq	*pthread_mutex_lock@GOTPCREL(%rip)
	movq	_ZN3std9panicking11panic_count18GLOBAL_PANIC_COUNT17h3b25e77861be4659E(%rip), %rax
	testq	%rax, %rax
	jne	.LBB48_270
	xorl	%r15d, %r15d
.LBB48_234:
	movb	24(%rbp), %al
	movq	%r12, 208(%rsp)
	movb	%r15b, 216(%rsp)
	leaq	32(%rbp), %rdi
	leaq	.L__unnamed_62(%rip), %rax
	movq	%rax, 64(%rsp)
	movq	$2, 72(%rsp)
	movq	$0, 80(%rsp)
	leaq	320(%rsp), %rax
	movq	%rax, 96(%rsp)
	movq	$1, 104(%rsp)
.Ltmp281:
	leaq	64(%rsp), %rsi
	callq	_ZN3std2io5Write9write_fmt17h16a814b50b63cadaE
.Ltmp282:
	movq	%rdx, %r14
	cmpb	$3, %al
	ja	.LBB48_261
	cmpb	$2, %al
	je	.LBB48_261
	testb	%r15b, %r15b
	jne	.LBB48_265
.LBB48_238:
	movq	_ZN3std9panicking11panic_count18GLOBAL_PANIC_COUNT17h3b25e77861be4659E(%rip), %rax
	testq	%rax, %rax
	je	.LBB48_265
	callq	_ZN3std9panicking11panic_count17is_zero_slow_path17h114aac63407c5996E
	testb	%al, %al
	jne	.LBB48_265
	movb	$1, 24(%rbp)
	jmp	.LBB48_265
.LBB48_241:
	movq	_ZN3std2io5stdio6stdout8INSTANCE17h72a1fcd979010ed1E(%rip), %rax
	cmpq	$3, %rax
	je	.LBB48_244
	leaq	_ZN3std2io5stdio6stdout8INSTANCE17h72a1fcd979010ed1E+8(%rip), %rax
	movq	%rax, 32(%rsp)
	movq	_ZN3std2io5stdio6stdout8INSTANCE17h72a1fcd979010ed1E(%rip), %rax
	cmpq	$3, %rax
	je	.LBB48_244
	leaq	32(%rsp), %rax
	movq	%rax, 64(%rsp)
	leaq	8(%rsp), %rax
	movq	%rax, 72(%rsp)
	leaq	64(%rsp), %rax
	movq	%rax, 208(%rsp)
.Ltmp287:
	leaq	_ZN3std2io5stdio6stdout8INSTANCE17h72a1fcd979010ed1E(%rip), %rdi
	leaq	anon.78e977b96a0d72b929ec10a1bff3500a.47.llvm.18205574725411267575(%rip), %rcx
	leaq	208(%rsp), %rdx
	movl	$1, %esi
	callq	_ZN3std4sync4once4Once10call_inner17h751801c3dab1ebc9E
.Ltmp288:
.LBB48_244:
	leaq	_ZN3std2io5stdio6stdout8INSTANCE17h72a1fcd979010ed1E+8(%rip), %rbx
	movq	%rbx, %rdi
	callq	*pthread_mutex_lock@GOTPCREL(%rip)
	movq	%rbx, 32(%rsp)
	leaq	32(%rsp), %r15
	movq	%r15, 208(%rsp)
	movb	$3, 216(%rsp)
	leaq	.L__unnamed_62(%rip), %rax
	movq	%rax, 64(%rsp)
	movq	$2, 72(%rsp)
	movq	$0, 80(%rsp)
	leaq	320(%rsp), %rax
	movq	%rax, 96(%rsp)
	movq	$1, 104(%rsp)
.Ltmp289:
	leaq	.Lanon.0bc4b03b1367d57f1fe2ddddf8bed743.35(%rip), %rsi
	leaq	208(%rsp), %r14
	leaq	64(%rsp), %rdx
	movq	%r14, %rdi
	callq	_ZN4core3fmt5write17h5f7d08b16a082aa3E
.Ltmp290:
	movb	216(%rsp), %cl
	testb	%al, %al
	je	.LBB48_251
	cmpb	$3, %cl
	jne	.LBB48_254
	movl	$15, %edi
	callq	*malloc@GOTPCREL(%rip)
	testq	%rax, %rax
	je	.LBB48_272
	movq	%rax, %rbp
	movq	anon.239c3e3bdbdb80e76e08bceba4553aea.8.llvm.1272308173113530362+7(%rip), %rax
	movq	%rax, 7(%rbp)
	movq	anon.239c3e3bdbdb80e76e08bceba4553aea.8.llvm.1272308173113530362(%rip), %rax
	movq	%rax, (%rbp)
	movl	$24, %edi
	callq	*malloc@GOTPCREL(%rip)
	testq	%rax, %rax
	je	.LBB48_271
	movq	%rax, %rbx
	movq	%rbp, (%rax)
	movdqa	.LCPI48_2(%rip), %xmm0
	movdqu	%xmm0, 8(%rax)
	movl	$24, %edi
	callq	*malloc@GOTPCREL(%rip)
	testq	%rax, %rax
	je	.LBB48_271
	movq	%rax, %rbp
	movq	%rbx, (%rax)
	leaq	anon.e76f679171b87fdfbcbdffbff1761197.13.llvm.18347500578880235919(%rip), %rax
	movq	%rax, 8(%rbp)
	movb	$16, 16(%rbp)
	movl	64(%rsp), %eax
	movl	67(%rsp), %ecx
	movl	%eax, 17(%rbp)
	movl	%ecx, 20(%rbp)
	movb	$2, %bl
	xorl	%r12d, %r12d
	movq	32(%rsp), %rdi
	callq	*pthread_mutex_unlock@GOTPCREL(%rip)
	cmpb	$3, %bl
	je	.LBB48_268
	jmp	.LBB48_260
.LBB48_251:
	movb	$3, %bl
	cmpb	$3, %cl
	ja	.LBB48_255
	xorl	%r12d, %r12d
	cmpb	$2, %cl
	jne	.LBB48_259
.LBB48_255:
	movq	224(%rsp), %rbp
	movq	(%rbp), %rdi
	movq	8(%rbp), %rax
.Ltmp295:
	callq	*(%rax)
.Ltmp296:
	movq	8(%rbp), %rax
	cmpq	$0, 8(%rax)
	je	.LBB48_258
	movq	(%rbp), %rdi
	callq	*free@GOTPCREL(%rip)
.LBB48_258:
	movq	224(%rsp), %rdi
	callq	*free@GOTPCREL(%rip)
	xorl	%r12d, %r12d
.LBB48_259:
	xorl	%ebp, %ebp
	movq	32(%rsp), %rdi
	callq	*pthread_mutex_unlock@GOTPCREL(%rip)
	cmpb	$3, %bl
	je	.LBB48_268
	jmp	.LBB48_260
.LBB48_254:
	movzbl	231(%rsp), %eax
	shll	$16, %eax
	movzwl	229(%rsp), %edx
	orl	%eax, %edx
	shlq	$32, %rdx
	movl	225(%rsp), %ebp
	orq	%rdx, %rbp
	movq	217(%rsp), %r12
	shldq	$8, %r12, %rbp
	movl	%ecx, %ebx
	movq	32(%rsp), %rdi
	callq	*pthread_mutex_unlock@GOTPCREL(%rip)
	cmpb	$3, %bl
	je	.LBB48_268
.LBB48_260:
	movb	%bl, 208(%rsp)
	movl	%r12d, 209(%rsp)
	movq	%r12, %rax
	shrq	$48, %rax
	movb	%al, 215(%rsp)
	shrq	$32, %r12
	movw	%r12w, 213(%rsp)
	movq	%rbp, 216(%rsp)
	leaq	384(%rsp), %rax
	movq	%rax, 32(%rsp)
	leaq	_ZN44_$LT$$RF$T$u20$as$u20$core..fmt..Display$GT$3fmt17h521adbb50ac846e0E(%rip), %rax
	movq	%rax, 40(%rsp)
	movq	%r14, 48(%rsp)
	leaq	_ZN60_$LT$std..io..error..Error$u20$as$u20$core..fmt..Display$GT$3fmt17ha2f38538486528b2E(%rip), %rax
	movq	%rax, 56(%rsp)
	leaq	.Lanon.0bc4b03b1367d57f1fe2ddddf8bed743.31(%rip), %rax
	movq	%rax, 64(%rsp)
	movq	$2, 72(%rsp)
	movq	$0, 80(%rsp)
	movq	%r15, 96(%rsp)
	movq	$2, 104(%rsp)
.Ltmp298:
	leaq	.Lanon.0bc4b03b1367d57f1fe2ddddf8bed743.32(%rip), %rsi
	leaq	64(%rsp), %rdi
	callq	_ZN3std9panicking15begin_panic_fmt17h2e51b41872ba4091E
.Ltmp299:
	jmp	.LBB48_102
.LBB48_261:
	movq	(%r14), %rdi
	movq	8(%r14), %rax
.Ltmp284:
	callq	*(%rax)
.Ltmp285:
	movq	8(%r14), %rax
	cmpq	$0, 8(%rax)
	je	.LBB48_264
	movq	(%r14), %rdi
	callq	*free@GOTPCREL(%rip)
.LBB48_264:
	movq	%r14, %rdi
	callq	*free@GOTPCREL(%rip)
	testb	%r15b, %r15b
	je	.LBB48_238
.LBB48_265:
	movq	(%r12), %rdi
	callq	*pthread_mutex_unlock@GOTPCREL(%rip)
	movq	32(%rsp), %rcx
	movq	(%rbx), %rax
	movq	%rcx, (%rbx)
	movq	%rax, 64(%rsp)
	testq	%rax, %rax
	je	.LBB48_268
	lock		subq	$1, (%rax)
	jne	.LBB48_268
	#MEMBARRIER
	leaq	64(%rsp), %rdi
	callq	_ZN5alloc4sync12Arc$LT$T$GT$9drop_slow17h91eddaeae1a7cab4E
.LBB48_268:
.Ltmp303:
	leaq	352(%rsp), %rdi
	callq	_ZN4core3ptr13drop_in_place17h43ac3631ab207fe0E
.Ltmp304:
	leaq	376(%rsp), %rdi
	callq	_ZN4core3ptr13drop_in_place17h2f562d6787bbd004E
	addq	$488, %rsp
	.cfi_def_cfa_offset 56
	popq	%rbx
	.cfi_def_cfa_offset 48
	popq	%r12
	.cfi_def_cfa_offset 40
	popq	%r13
	.cfi_def_cfa_offset 32
	popq	%r14
	.cfi_def_cfa_offset 24
	popq	%r15
	.cfi_def_cfa_offset 16
	popq	%rbp
	.cfi_def_cfa_offset 8
	retq
.LBB48_270:
	.cfi_def_cfa_offset 544
	callq	_ZN3std9panicking11panic_count17is_zero_slow_path17h114aac63407c5996E
	movl	%eax, %r15d
	xorb	$1, %r15b
	jmp	.LBB48_234
.LBB48_271:
	movl	$24, %edi
	movl	$8, %esi
	callq	_ZN5alloc5alloc18handle_alloc_error17h66207f37c5e1158cE
	ud2
.LBB48_272:
	movl	$15, %edi
	movl	$1, %esi
	callq	_ZN5alloc5alloc18handle_alloc_error17h66207f37c5e1158cE
	ud2
.LBB48_273:
.Ltmp300:
	movq	%rax, %rbx
.Ltmp301:
	leaq	208(%rsp), %rdi
	callq	_ZN4core3ptr13drop_in_place17h1876b58dff8f0243E
.Ltmp302:
	jmp	.LBB48_134
.LBB48_274:
.Ltmp286:
	movq	%rax, %rbx
	movq	(%r14), %rdi
	movq	8(%r14), %rax
	movq	8(%rax), %rsi
	callq	_ZN5alloc5alloc8box_free17h292378dea4494778E
	movq	%r14, %rdi
	callq	_ZN5alloc5alloc8box_free17h3288cca7f93057b7E.llvm.12602067952453011377
	jmp	.LBB48_277
.LBB48_275:
.Ltmp297:
	movq	%rax, %rbx
	movq	(%rbp), %rdi
	movq	8(%rbp), %rax
	movq	8(%rax), %rsi
	callq	_ZN5alloc5alloc8box_free17h292378dea4494778E
	movq	224(%rsp), %rdi
	callq	_ZN5alloc5alloc8box_free17h3288cca7f93057b7E.llvm.12602067952453011377
	jmp	.LBB48_279
.LBB48_276:
.Ltmp283:
	movq	%rax, %rbx
.LBB48_277:
	leaq	208(%rsp), %rdi
	callq	_ZN4core3ptr13drop_in_place17h4724952f873bf679E
	leaq	32(%rsp), %rdi
	callq	_ZN4core3ptr13drop_in_place17h901f21dd408343eaE
	jmp	.LBB48_134
.LBB48_278:
.Ltmp291:
	movq	%rax, %rbx
.Ltmp292:
	leaq	208(%rsp), %rdi
	callq	_ZN4core3ptr13drop_in_place17h238a9f4ced4a43dbE
.Ltmp293:
.LBB48_279:
	leaq	32(%rsp), %rdi
	callq	_ZN4core3ptr13drop_in_place17h26e516639d72bee1E
	jmp	.LBB48_134
.LBB48_280:
.Ltmp294:
	movq	%rax, %rbx
	jmp	.LBB48_279
.LBB48_281:
.Ltmp305:
	movq	%rax, %rbx
	jmp	.LBB48_135
.LBB48_224:
	movl	$32, %edi
	movl	$8, %esi
	callq	_ZN5alloc5alloc18handle_alloc_error17h66207f37c5e1158cE
	ud2
.LBB48_282:
	movq	360(%rsp), %rbp
	movq	16(%rbp), %rax
	testq	%rax, %rax
	jne	.LBB48_293
.Ltmp275:
	callq	_ZN3std10sys_common11thread_info14current_thread17h71fa6eaac75827abE
.Ltmp276:
	movq	%rax, %rbx
	testq	%rax, %rax
	je	.LBB48_305
	movl	$32, %edi
	callq	*malloc@GOTPCREL(%rip)
	testq	%rax, %rax
	je	.LBB48_224
	movq	%rax, %rcx
	movdqa	.LCPI48_1(%rip), %xmm0
	movdqu	%xmm0, (%rax)
	movq	%rbx, 16(%rax)
	movb	$0, 24(%rax)
	movl	64(%rsp), %eax
	movl	67(%rsp), %edx
	movl	%eax, 25(%rcx)
	movl	%edx, 28(%rcx)
	lock		addq	$1, (%rcx)
	jle	.LBB48_360
	movq	%rcx, 208(%rsp)
	xorl	%eax, %eax
	lock		cmpxchgq	%rcx, 16(%rbp)
	jne	.LBB48_289
	movq	208(%rsp), %rdi
.Ltmp277:
	callq	_ZN3std4sync4mpsc8blocking9WaitToken4wait17h8e6761468719f6d0E
.Ltmp278:
	jmp	.LBB48_293
.LBB48_289:
	movq	%rcx, 64(%rsp)
	lock		subq	$1, (%rcx)
	jne	.LBB48_291
	#MEMBARRIER
	leaq	64(%rsp), %rdi
	callq	_ZN5alloc4sync12Arc$LT$T$GT$9drop_slow17h1e82fdada470bc6dE
.LBB48_291:
	movq	208(%rsp), %rax
	lock		subq	$1, (%rax)
	jne	.LBB48_293
	#MEMBARRIER
	leaq	208(%rsp), %rdi
	callq	_ZN5alloc4sync12Arc$LT$T$GT$9drop_slow17h1e82fdada470bc6dE
.LBB48_293:
	movq	16(%rbp), %rax
	testq	%rax, %rax
	je	.LBB48_298
	cmpq	$1, %rax
	je	.LBB48_302
	cmpq	$2, %rax
	jne	.LBB48_304
	movq	32(%rbp), %rbx
	cmpq	$0, 24(%rbp)
	movq	$0, 24(%rbp)
	jne	.LBB48_226
	movq	40(%rbp), %rax
	movq	$5, 40(%rbp)
	movq	%rax, %rcx
	andq	$-2, %rcx
	cmpq	$4, %rcx
	movq	192(%rsp), %rcx
	cmovneq	48(%rbp), %rcx
	movq	%rcx, %rbp
	movl	$5, %ebx
	cmovneq	%rax, %rbx
	jmp	.LBB48_299
.LBB48_298:
	movl	$4, %ebx
	movq	192(%rsp), %rbp
.LBB48_299:
	leaq	-4(%rbx), %rcx
	cmpq	$2, %rcx
	movl	$2, %eax
	cmovbq	%rcx, %rax
	movq	%rbp, 192(%rsp)
	cmpq	$2, %rax
	je	.LBB48_332
	cmpq	$1, %rax
	je	.LBB48_225
.Ltmp313:
	leaq	.Lanon.239c3e3bdbdb80e76e08bceba4553aea.24(%rip), %rdi
	leaq	.L__unnamed_63(%rip), %rdx
	movl	$40, %esi
	callq	_ZN4core9panicking5panic17h879f53aa45bf615bE
.Ltmp314:
	jmp	.LBB48_102
.LBB48_302:
	xorl	%ecx, %ecx
	movl	$1, %eax
	lock		cmpxchgq	%rcx, 16(%rbp)
	movq	32(%rbp), %rbx
	cmpq	$0, 24(%rbp)
	movq	$0, 24(%rbp)
	jne	.LBB48_226
.Ltmp306:
	leaq	.Lanon.239c3e3bdbdb80e76e08bceba4553aea.24(%rip), %rdi
	leaq	.L__unnamed_64(%rip), %rdx
	movl	$40, %esi
	callq	_ZN4core9panicking5panic17h879f53aa45bf615bE
.Ltmp307:
	jmp	.LBB48_102
.LBB48_304:
.Ltmp315:
	leaq	.Lanon.239c3e3bdbdb80e76e08bceba4553aea.24(%rip), %rdi
	leaq	.L__unnamed_65(%rip), %rdx
	movl	$40, %esi
	callq	_ZN4core9panicking5panic17h879f53aa45bf615bE
.Ltmp316:
	jmp	.LBB48_102
.LBB48_305:
.Ltmp318:
	callq	_ZN4core6option13expect_failed17h35edea9229f0b68aE
.Ltmp319:
	jmp	.LBB48_102
.LBB48_306:
	movq	360(%rsp), %r13
	leaq	64(%r13), %rbp
.Ltmp256:
	leaq	64(%rsp), %rdi
	movq	%rbp, %rsi
	callq	_ZN3std4sync4mpsc6stream15Packet$LT$T$GT$8try_recv17hb54a9532178d18f3E
.Ltmp257:
	movq	64(%rsp), %r14
	movq	72(%rsp), %rbx
	cmpq	$1, %r14
	jne	.LBB48_316
	cmpq	$4, %rbx
	jne	.LBB48_316
.Ltmp258:
	callq	_ZN3std10sys_common11thread_info14current_thread17h71fa6eaac75827abE
.Ltmp259:
	movq	%rax, %rbx
	testq	%rax, %rax
	je	.LBB48_365
	movl	$32, %edi
	callq	*malloc@GOTPCREL(%rip)
	testq	%rax, %rax
	je	.LBB48_224
	movdqa	.LCPI48_1(%rip), %xmm0
	movdqu	%xmm0, (%rax)
	movq	%rbx, 16(%rax)
	movb	$0, 24(%rax)
	movl	64(%rsp), %ecx
	movl	67(%rsp), %edx
	movl	%ecx, 25(%rax)
	movl	%edx, 28(%rax)
	lock		addq	$1, (%rax)
	jle	.LBB48_360
	movq	%rax, 200(%rsp)
	movq	%rax, 8(%rsp)
	movq	160(%r13), %rax
	movq	%rax, 424(%rsp)
	testq	%rax, %rax
	jne	.LBB48_363
	movq	8(%rsp), %rax
	movq	%rax, %rcx
	xchgq	%rcx, 160(%r13)
	movabsq	$-9223372036854775808, %rsi
	movq	96(%r13), %rcx
	movq	$0, 96(%r13)
	movq	%rcx, %rdx
	notq	%rdx
	lock		xaddq	%rdx, 152(%r13)
	cmpq	%rsi, %rdx
	jne	.LBB48_317
	xchgq	%rsi, 152(%r13)
	jmp	.LBB48_319
.LBB48_316:
	movq	80(%rsp), %rbp
	jmp	.LBB48_330
.LBB48_317:
	testq	%rdx, %rdx
	js	.LBB48_364
	subq	%rcx, %rdx
	testq	%rdx, %rdx
	jle	.LBB48_358
.LBB48_319:
	xorl	%ecx, %ecx
	xchgq	%rcx, 160(%r13)
	movq	%rax, 16(%rsp)
	lock		subq	$1, (%rax)
	jne	.LBB48_321
	#MEMBARRIER
	leaq	16(%rsp), %rdi
	callq	_ZN5alloc4sync12Arc$LT$T$GT$9drop_slow17h1e82fdada470bc6dE
.LBB48_321:
	xorl	%r15d, %r15d
.LBB48_322:
.Ltmp268:
	leaq	64(%rsp), %rdi
	movq	%rbp, %rsi
	callq	_ZN3std4sync4mpsc6stream15Packet$LT$T$GT$8try_recv17hb54a9532178d18f3E
.Ltmp269:
	cmpl	$1, 64(%rsp)
	movq	72(%rsp), %rbx
	jne	.LBB48_326
	movl	%ebx, %eax
	andl	$6, %eax
	movl	$1, %r14d
	movq	80(%rsp), %rbp
	cmpl	$4, %eax
	jne	.LBB48_327
	testb	%r15b, %r15b
	je	.LBB48_328
	jmp	.LBB48_330
.LBB48_326:
	movq	80(%rsp), %rbp
	xorl	%r14d, %r14d
.LBB48_327:
	addq	$-1, 96(%r13)
	testb	%r15b, %r15b
	jne	.LBB48_330
.LBB48_328:
	movq	200(%rsp), %rax
	lock		subq	$1, (%rax)
	jne	.LBB48_330
	#MEMBARRIER
	leaq	200(%rsp), %rdi
	callq	_ZN5alloc4sync12Arc$LT$T$GT$9drop_slow17h1e82fdada470bc6dE
.LBB48_330:
	testq	%r14, %r14
	je	.LBB48_226
	leaq	-4(%rbx), %rcx
	cmpq	$2, %rcx
	movl	$2, %eax
	cmovbq	%rcx, %rax
	cmpq	$2, %rax
	jne	.LBB48_361
.LBB48_332:
	movq	%rbx, 384(%rsp)
	movq	%rbp, 392(%rsp)
	movdqa	352(%rsp), %xmm0
	movq	384(%rsp), %rax
	movq	%rax, 352(%rsp)
	movq	392(%rsp), %rax
	movq	%rax, 360(%rsp)
	movdqa	%xmm0, 384(%rsp)
.Ltmp308:
	leaq	384(%rsp), %rdi
	callq	_ZN4core3ptr13drop_in_place17h43ac3631ab207fe0E
.Ltmp309:
	movq	352(%rsp), %rax
	movslq	(%r12,%rax,4), %rax
	addq	%r12, %rax
	jmpq	*%rax
.LBB48_334:
	movq	360(%rsp), %r15
	leaq	16(%r15), %r14
.Ltmp237:
	movq	%r14, %rdi
	callq	_ZN3std4sync4mpsc6shared15Packet$LT$T$GT$8try_recv17h658540f255cf2c4fE
.Ltmp238:
	movq	%rax, %r12
	andl	$257, %eax
	xorq	$1, %rax
	jne	.LBB48_343
.Ltmp239:
	callq	_ZN3std10sys_common11thread_info14current_thread17h71fa6eaac75827abE
.Ltmp240:
	movq	%rax, %rbx
	testq	%rax, %rax
	je	.LBB48_366
	movl	$32, %edi
	callq	*malloc@GOTPCREL(%rip)
	testq	%rax, %rax
	je	.LBB48_224
	movdqa	.LCPI48_1(%rip), %xmm0
	movdqu	%xmm0, (%rax)
	movq	%rbx, 16(%rax)
	movb	$0, 24(%rax)
	movl	64(%rsp), %ecx
	movl	67(%rsp), %edx
	movl	%ecx, 25(%rax)
	movl	%edx, 28(%rax)
	lock		addq	$1, (%rax)
	jle	.LBB48_360
	movq	%rax, 16(%rsp)
	movq	%rax, 8(%rsp)
	movq	48(%r15), %rax
	movq	%rax, 424(%rsp)
	testq	%rax, %rax
	jne	.LBB48_367
	movq	8(%rsp), %rax
	movq	%rax, %rcx
	xchgq	%rcx, 48(%r15)
	movabsq	$-9223372036854775808, %rsi
	movq	40(%r15), %rcx
	movq	$0, 40(%r15)
	movq	%rcx, %rdx
	notq	%rdx
	lock		xaddq	%rdx, 32(%r15)
	cmpq	%rsi, %rdx
	jne	.LBB48_344
	xchgq	%rsi, 32(%r15)
	jmp	.LBB48_346
.LBB48_343:
	movq	%rdx, %rbx
	movl	%r12d, %ebp
	andl	$1, %ebp
	xorl	%r14d, %r14d
	jmp	.LBB48_355
.LBB48_344:
	testq	%rdx, %rdx
	js	.LBB48_368
	subq	%rcx, %rdx
	testq	%rdx, %rdx
	jle	.LBB48_359
.LBB48_346:
	xorl	%ecx, %ecx
	xchgq	%rcx, 48(%r15)
	movq	%rax, 64(%rsp)
	lock		subq	$1, (%rax)
	jne	.LBB48_348
	#MEMBARRIER
	leaq	64(%rsp), %rdi
	callq	_ZN5alloc4sync12Arc$LT$T$GT$9drop_slow17h1e82fdada470bc6dE
.LBB48_348:
	xorl	%r13d, %r13d
.LBB48_349:
.Ltmp249:
	movq	%r14, %rdi
	callq	_ZN3std4sync4mpsc6shared15Packet$LT$T$GT$8try_recv17h658540f255cf2c4fE
.Ltmp250:
	movq	%rax, %r12
	movq	%rdx, %rbx
	movl	%r12d, %ebp
	andl	$1, %ebp
	testq	%rbp, %rbp
	jne	.LBB48_352
	addq	$-1, 40(%r15)
.LBB48_352:
	xorl	%r14d, %r14d
	testb	%r13b, %r13b
	jne	.LBB48_355
	movq	16(%rsp), %rax
	lock		subq	$1, (%rax)
	jne	.LBB48_355
	#MEMBARRIER
	leaq	16(%rsp), %rdi
	callq	_ZN5alloc4sync12Arc$LT$T$GT$9drop_slow17h1e82fdada470bc6dE
.LBB48_355:
	orq	%r14, %rbp
	je	.LBB48_226
	testl	$256, %r12d
	jne	.LBB48_225
.Ltmp252:
	leaq	.Lanon.239c3e3bdbdb80e76e08bceba4553aea.24(%rip), %rdi
	leaq	.L__unnamed_66(%rip), %rdx
	movl	$40, %esi
	callq	_ZN4core9panicking5panic17h879f53aa45bf615bE
.Ltmp253:
	jmp	.LBB48_102
.LBB48_358:
	movb	$1, %r15b
	movq	200(%rsp), %rdi
.Ltmp263:
	callq	_ZN3std4sync4mpsc8blocking9WaitToken4wait17h8e6761468719f6d0E
.Ltmp264:
	jmp	.LBB48_322
.LBB48_359:
	movb	$1, %r13b
	movq	16(%rsp), %rdi
.Ltmp244:
	callq	_ZN3std4sync4mpsc8blocking9WaitToken4wait17h8e6761468719f6d0E
.Ltmp245:
	jmp	.LBB48_349
.LBB48_361:
	cmpq	$1, %rax
	je	.LBB48_225
.Ltmp271:
	leaq	.Lanon.239c3e3bdbdb80e76e08bceba4553aea.24(%rip), %rdi
	leaq	.L__unnamed_67(%rip), %rdx
	movl	$40, %esi
	callq	_ZN4core9panicking5panic17h879f53aa45bf615bE
.Ltmp272:
	jmp	.LBB48_102
.LBB48_363:
	leaq	424(%rsp), %rax
	movq	%rax, 320(%rsp)
	leaq	.L__unnamed_34(%rip), %rax
	movq	%rax, 32(%rsp)
	leaq	320(%rsp), %rax
	movq	%rax, 208(%rsp)
	leaq	_ZN42_$LT$$RF$T$u20$as$u20$core..fmt..Debug$GT$3fmt17h19aace9ba3b20d23E(%rip), %rax
	movq	%rax, 216(%rsp)
	leaq	32(%rsp), %rcx
	movq	%rcx, 224(%rsp)
	movq	%rax, 232(%rsp)
	leaq	anon.44270d117240652e2c29b279aed00257.126.llvm.3683828415613454216(%rip), %rax
	movq	%rax, 64(%rsp)
	movq	$3, 72(%rsp)
	movq	$0, 80(%rsp)
	leaq	208(%rsp), %rax
	movq	%rax, 96(%rsp)
	movq	$2, 104(%rsp)
.Ltmp260:
	leaq	.L__unnamed_68(%rip), %rsi
	leaq	64(%rsp), %rdi
	callq	_ZN4core9panicking9panic_fmt17h88d1befd03709389E
.Ltmp261:
	jmp	.LBB48_102
.LBB48_364:
.Ltmp265:
	leaq	.L__unnamed_69(%rip), %rdi
	leaq	.L__unnamed_70(%rip), %rdx
	movl	$24, %esi
	callq	_ZN4core9panicking5panic17h879f53aa45bf615bE
.Ltmp266:
	jmp	.LBB48_102
.LBB48_365:
.Ltmp273:
	callq	_ZN4core6option13expect_failed17h35edea9229f0b68aE
.Ltmp274:
	jmp	.LBB48_102
.LBB48_366:
.Ltmp254:
	callq	_ZN4core6option13expect_failed17h35edea9229f0b68aE
.Ltmp255:
	jmp	.LBB48_102
.LBB48_367:
	leaq	424(%rsp), %rax
	movq	%rax, 320(%rsp)
	leaq	.L__unnamed_34(%rip), %rax
	movq	%rax, 32(%rsp)
	leaq	320(%rsp), %rax
	movq	%rax, 208(%rsp)
	leaq	_ZN42_$LT$$RF$T$u20$as$u20$core..fmt..Debug$GT$3fmt17h19aace9ba3b20d23E(%rip), %rax
	movq	%rax, 216(%rsp)
	leaq	32(%rsp), %rcx
	movq	%rcx, 224(%rsp)
	movq	%rax, 232(%rsp)
	leaq	anon.44270d117240652e2c29b279aed00257.126.llvm.3683828415613454216(%rip), %rax
	movq	%rax, 64(%rsp)
	movq	$3, 72(%rsp)
	movq	$0, 80(%rsp)
	leaq	208(%rsp), %rax
	movq	%rax, 96(%rsp)
	movq	$2, 104(%rsp)
.Ltmp241:
	leaq	.L__unnamed_71(%rip), %rsi
	leaq	64(%rsp), %rdi
	callq	_ZN4core9panicking9panic_fmt17h88d1befd03709389E
.Ltmp242:
	jmp	.LBB48_102
.LBB48_368:
.Ltmp246:
	leaq	.L__unnamed_69(%rip), %rdi
	leaq	.L__unnamed_72(%rip), %rdx
	movl	$24, %esi
	callq	_ZN4core9panicking5panic17h879f53aa45bf615bE
.Ltmp247:
	jmp	.LBB48_102
.LBB48_369:
.Ltmp248:
	movq	%rax, %rbx
	jmp	.LBB48_375
.LBB48_370:
.Ltmp243:
	movq	%rax, %rbx
	leaq	8(%rsp), %rdi
	callq	_ZN4core3ptr13drop_in_place17h6f32fe250bbc628cE
	jmp	.LBB48_375
.LBB48_371:
.Ltmp267:
	movq	%rax, %rbx
	jmp	.LBB48_377
.LBB48_372:
.Ltmp262:
	movq	%rax, %rbx
	leaq	8(%rsp), %rdi
	callq	_ZN4core3ptr13drop_in_place17h6f32fe250bbc628cE
	jmp	.LBB48_377
.LBB48_373:
.Ltmp320:
	jmp	.LBB48_127
.LBB48_374:
.Ltmp251:
	movq	%rax, %rbx
	testb	%r13b, %r13b
	jne	.LBB48_134
.LBB48_375:
	leaq	16(%rsp), %rdi
	callq	_ZN4core3ptr13drop_in_place17h6f32fe250bbc628cE
	jmp	.LBB48_134
.LBB48_376:
.Ltmp270:
	movq	%rax, %rbx
	testb	%r15b, %r15b
	jne	.LBB48_134
.LBB48_377:
	leaq	200(%rsp), %rdi
	callq	_ZN4core3ptr13drop_in_place17h6f32fe250bbc628cE
	jmp	.LBB48_134
.LBB48_378:
.Ltmp317:
	jmp	.LBB48_127
.LBB48_379:
.Ltmp310:
	jmp	.LBB48_127
.Lfunc_end48:
	.size	_ZN5phatq4main17hff9feffff70b0fe5E, .Lfunc_end48-_ZN5phatq4main17hff9feffff70b0fe5E
	.cfi_endproc
	.section	.rodata._ZN5phatq4main17hff9feffff70b0fe5E,"a",@progbits
	.p2align	2
.LJTI48_0:
	.long	.LBB48_282-.LJTI48_0
	.long	.LBB48_306-.LJTI48_0
	.long	.LBB48_334-.LJTI48_0
	.long	.LBB48_137-.LJTI48_0
	.section	.gcc_except_table,"a",@progbits
	.p2align	2
GCC_except_table48:
.Lexception16:
	.byte	255
	.byte	255
	.byte	1
	.uleb128 .Lcst_end16-.Lcst_begin16
.Lcst_begin16:
	.uleb128 .Ltmp154-.Lfunc_begin16
	.uleb128 .Ltmp155-.Ltmp154
	.uleb128 .Ltmp317-.Lfunc_begin16
	.byte	0
	.uleb128 .Ltmp156-.Lfunc_begin16
	.uleb128 .Ltmp157-.Ltmp156
	.uleb128 .Ltmp158-.Lfunc_begin16
	.byte	0
	.uleb128 .Ltmp159-.Lfunc_begin16
	.uleb128 .Ltmp160-.Ltmp159
	.uleb128 .Ltmp161-.Lfunc_begin16
	.byte	0
	.uleb128 .Ltmp162-.Lfunc_begin16
	.uleb128 .Ltmp163-.Ltmp162
	.uleb128 .Ltmp164-.Lfunc_begin16
	.byte	0
	.uleb128 .Ltmp168-.Lfunc_begin16
	.uleb128 .Ltmp169-.Ltmp168
	.uleb128 .Ltmp170-.Lfunc_begin16
	.byte	0
	.uleb128 .Ltmp169-.Lfunc_begin16
	.uleb128 .Ltmp179-.Ltmp169
	.byte	0
	.byte	0
	.uleb128 .Ltmp179-.Lfunc_begin16
	.uleb128 .Ltmp180-.Ltmp179
	.uleb128 .Ltmp181-.Lfunc_begin16
	.byte	0
	.uleb128 .Ltmp202-.Lfunc_begin16
	.uleb128 .Ltmp203-.Ltmp202
	.uleb128 .Ltmp204-.Lfunc_begin16
	.byte	0
	.uleb128 .Ltmp177-.Lfunc_begin16
	.uleb128 .Ltmp187-.Ltmp177
	.uleb128 .Ltmp188-.Lfunc_begin16
	.byte	0
	.uleb128 .Ltmp189-.Lfunc_begin16
	.uleb128 .Ltmp190-.Ltmp189
	.uleb128 .Ltmp191-.Lfunc_begin16
	.byte	0
	.uleb128 .Ltmp194-.Lfunc_begin16
	.uleb128 .Ltmp195-.Ltmp194
	.uleb128 .Ltmp196-.Lfunc_begin16
	.byte	0
	.uleb128 .Ltmp197-.Lfunc_begin16
	.uleb128 .Ltmp198-.Ltmp197
	.uleb128 .Ltmp199-.Lfunc_begin16
	.byte	0
	.uleb128 .Ltmp182-.Lfunc_begin16
	.uleb128 .Ltmp185-.Ltmp182
	.uleb128 .Ltmp188-.Lfunc_begin16
	.byte	0
	.uleb128 .Ltmp165-.Lfunc_begin16
	.uleb128 .Ltmp166-.Ltmp165
	.uleb128 .Ltmp167-.Lfunc_begin16
	.byte	0
	.uleb128 .Ltmp137-.Lfunc_begin16
	.uleb128 .Ltmp138-.Ltmp137
	.uleb128 .Ltmp139-.Lfunc_begin16
	.byte	0
	.uleb128 .Ltmp143-.Lfunc_begin16
	.uleb128 .Ltmp144-.Ltmp143
	.uleb128 .Ltmp145-.Lfunc_begin16
	.byte	0
	.uleb128 .Ltmp148-.Lfunc_begin16
	.uleb128 .Ltmp149-.Ltmp148
	.uleb128 .Ltmp150-.Lfunc_begin16
	.byte	0
	.uleb128 .Ltmp151-.Lfunc_begin16
	.uleb128 .Ltmp147-.Ltmp151
	.uleb128 .Ltmp153-.Lfunc_begin16
	.byte	0
	.uleb128 .Ltmp140-.Lfunc_begin16
	.uleb128 .Ltmp141-.Ltmp140
	.uleb128 .Ltmp142-.Lfunc_begin16
	.byte	0
	.uleb128 .Ltmp200-.Lfunc_begin16
	.uleb128 .Ltmp176-.Ltmp200
	.uleb128 .Ltmp317-.Lfunc_begin16
	.byte	0
	.uleb128 .Ltmp176-.Lfunc_begin16
	.uleb128 .Ltmp219-.Ltmp176
	.byte	0
	.byte	0
	.uleb128 .Ltmp219-.Lfunc_begin16
	.uleb128 .Ltmp220-.Ltmp219
	.uleb128 .Ltmp233-.Lfunc_begin16
	.byte	0
	.uleb128 .Ltmp208-.Lfunc_begin16
	.uleb128 .Ltmp209-.Ltmp208
	.uleb128 .Ltmp236-.Lfunc_begin16
	.byte	0
	.uleb128 .Ltmp213-.Lfunc_begin16
	.uleb128 .Ltmp214-.Ltmp213
	.uleb128 .Ltmp215-.Lfunc_begin16
	.byte	0
	.uleb128 .Ltmp231-.Lfunc_begin16
	.uleb128 .Ltmp232-.Ltmp231
	.uleb128 .Ltmp233-.Lfunc_begin16
	.byte	0
	.uleb128 .Ltmp205-.Lfunc_begin16
	.uleb128 .Ltmp206-.Ltmp205
	.uleb128 .Ltmp207-.Lfunc_begin16
	.byte	0
	.uleb128 .Ltmp216-.Lfunc_begin16
	.uleb128 .Ltmp217-.Ltmp216
	.uleb128 .Ltmp218-.Lfunc_begin16
	.byte	0
	.uleb128 .Ltmp229-.Lfunc_begin16
	.uleb128 .Ltmp228-.Ltmp229
	.uleb128 .Ltmp233-.Lfunc_begin16
	.byte	0
	.uleb128 .Ltmp224-.Lfunc_begin16
	.uleb128 .Ltmp225-.Ltmp224
	.uleb128 .Ltmp226-.Lfunc_begin16
	.byte	0
	.uleb128 .Ltmp221-.Lfunc_begin16
	.uleb128 .Ltmp222-.Ltmp221
	.uleb128 .Ltmp223-.Lfunc_begin16
	.byte	0
	.uleb128 .Ltmp234-.Lfunc_begin16
	.uleb128 .Ltmp235-.Ltmp234
	.uleb128 .Ltmp236-.Lfunc_begin16
	.byte	0
	.uleb128 .Ltmp210-.Lfunc_begin16
	.uleb128 .Ltmp211-.Ltmp210
	.uleb128 .Ltmp212-.Lfunc_begin16
	.byte	0
	.uleb128 .Ltmp311-.Lfunc_begin16
	.uleb128 .Ltmp280-.Ltmp311
	.uleb128 .Ltmp317-.Lfunc_begin16
	.byte	0
	.uleb128 .Ltmp281-.Lfunc_begin16
	.uleb128 .Ltmp282-.Ltmp281
	.uleb128 .Ltmp283-.Lfunc_begin16
	.byte	0
	.uleb128 .Ltmp287-.Lfunc_begin16
	.uleb128 .Ltmp288-.Ltmp287
	.uleb128 .Ltmp317-.Lfunc_begin16
	.byte	0
	.uleb128 .Ltmp289-.Lfunc_begin16
	.uleb128 .Ltmp290-.Ltmp289
	.uleb128 .Ltmp291-.Lfunc_begin16
	.byte	0
	.uleb128 .Ltmp295-.Lfunc_begin16
	.uleb128 .Ltmp296-.Ltmp295
	.uleb128 .Ltmp297-.Lfunc_begin16
	.byte	0
	.uleb128 .Ltmp298-.Lfunc_begin16
	.uleb128 .Ltmp299-.Ltmp298
	.uleb128 .Ltmp300-.Lfunc_begin16
	.byte	0
	.uleb128 .Ltmp284-.Lfunc_begin16
	.uleb128 .Ltmp285-.Ltmp284
	.uleb128 .Ltmp286-.Lfunc_begin16
	.byte	0
	.uleb128 .Ltmp303-.Lfunc_begin16
	.uleb128 .Ltmp304-.Ltmp303
	.uleb128 .Ltmp305-.Lfunc_begin16
	.byte	0
	.uleb128 .Ltmp304-.Lfunc_begin16
	.uleb128 .Ltmp301-.Ltmp304
	.byte	0
	.byte	0
	.uleb128 .Ltmp301-.Lfunc_begin16
	.uleb128 .Ltmp302-.Ltmp301
	.uleb128 .Ltmp317-.Lfunc_begin16
	.byte	0
	.uleb128 .Ltmp292-.Lfunc_begin16
	.uleb128 .Ltmp293-.Ltmp292
	.uleb128 .Ltmp294-.Lfunc_begin16
	.byte	0
	.uleb128 .Ltmp275-.Lfunc_begin16
	.uleb128 .Ltmp278-.Ltmp275
	.uleb128 .Ltmp310-.Lfunc_begin16
	.byte	0
	.uleb128 .Ltmp313-.Lfunc_begin16
	.uleb128 .Ltmp316-.Ltmp313
	.uleb128 .Ltmp317-.Lfunc_begin16
	.byte	0
	.uleb128 .Ltmp318-.Lfunc_begin16
	.uleb128 .Ltmp319-.Ltmp318
	.uleb128 .Ltmp320-.Lfunc_begin16
	.byte	0
	.uleb128 .Ltmp256-.Lfunc_begin16
	.uleb128 .Ltmp259-.Ltmp256
	.uleb128 .Ltmp310-.Lfunc_begin16
	.byte	0
	.uleb128 .Ltmp268-.Lfunc_begin16
	.uleb128 .Ltmp269-.Ltmp268
	.uleb128 .Ltmp270-.Lfunc_begin16
	.byte	0
	.uleb128 .Ltmp308-.Lfunc_begin16
	.uleb128 .Ltmp309-.Ltmp308
	.uleb128 .Ltmp310-.Lfunc_begin16
	.byte	0
	.uleb128 .Ltmp237-.Lfunc_begin16
	.uleb128 .Ltmp240-.Ltmp237
	.uleb128 .Ltmp317-.Lfunc_begin16
	.byte	0
	.uleb128 .Ltmp249-.Lfunc_begin16
	.uleb128 .Ltmp250-.Ltmp249
	.uleb128 .Ltmp251-.Lfunc_begin16
	.byte	0
	.uleb128 .Ltmp252-.Lfunc_begin16
	.uleb128 .Ltmp253-.Ltmp252
	.uleb128 .Ltmp317-.Lfunc_begin16
	.byte	0
	.uleb128 .Ltmp263-.Lfunc_begin16
	.uleb128 .Ltmp264-.Ltmp263
	.uleb128 .Ltmp310-.Lfunc_begin16
	.byte	0
	.uleb128 .Ltmp244-.Lfunc_begin16
	.uleb128 .Ltmp272-.Ltmp244
	.uleb128 .Ltmp317-.Lfunc_begin16
	.byte	0
	.uleb128 .Ltmp260-.Lfunc_begin16
	.uleb128 .Ltmp261-.Ltmp260
	.uleb128 .Ltmp262-.Lfunc_begin16
	.byte	0
	.uleb128 .Ltmp265-.Lfunc_begin16
	.uleb128 .Ltmp266-.Ltmp265
	.uleb128 .Ltmp267-.Lfunc_begin16
	.byte	0
	.uleb128 .Ltmp273-.Lfunc_begin16
	.uleb128 .Ltmp274-.Ltmp273
	.uleb128 .Ltmp320-.Lfunc_begin16
	.byte	0
	.uleb128 .Ltmp254-.Lfunc_begin16
	.uleb128 .Ltmp255-.Ltmp254
	.uleb128 .Ltmp317-.Lfunc_begin16
	.byte	0
	.uleb128 .Ltmp241-.Lfunc_begin16
	.uleb128 .Ltmp242-.Ltmp241
	.uleb128 .Ltmp243-.Lfunc_begin16
	.byte	0
	.uleb128 .Ltmp246-.Lfunc_begin16
	.uleb128 .Ltmp247-.Ltmp246
	.uleb128 .Ltmp248-.Lfunc_begin16
	.byte	0
.Lcst_end16:
	.p2align	2

	.section	.rodata.cst16,"aM",@progbits,16
	.p2align	4
.LCPI49_0:
	.long	1
	.long	0
	.long	2
	.long	0
.LCPI49_1:
	.quad	4
	.quad	4
	.section	.text.main,"ax",@progbits
	.globl	main
	.p2align	4, 0x90
	.type	main,@function
main:
.Lfunc_begin17:
	.cfi_startproc
	.cfi_personality 155, DW.ref.rust_eh_personality
	.cfi_lsda 27, .Lexception17
	pushq	%rbp
	.cfi_def_cfa_offset 16
	pushq	%r15
	.cfi_def_cfa_offset 24
	pushq	%r14
	.cfi_def_cfa_offset 32
	pushq	%rbx
	.cfi_def_cfa_offset 40
	subq	$232, %rsp
	.cfi_def_cfa_offset 272
	.cfi_offset %rbx, -40
	.cfi_offset %r14, -32
	.cfi_offset %r15, -24
	.cfi_offset %rbp, -16
	movq	$0, 16(%rsp)
	movaps	.LCPI49_0(%rip), %xmm0
	movups	%xmm0, 24(%rsp)
	leaq	16(%rsp), %r14
	movq	poll@GOTPCREL(%rip), %rbp
	movq	__errno_location@GOTPCREL(%rip), %rbx
	.p2align	4, 0x90
.LBB49_1:
	movl	$3, %esi
	movq	%r14, %rdi
	xorl	%edx, %edx
	callq	*%rbp
	cmpl	$-1, %eax
	jne	.LBB49_2
	callq	*%rbx
	cmpl	$4, (%rax)
	je	.LBB49_1
.LBB49_11:
	callq	*abort@GOTPCREL(%rip)
	ud2
.LBB49_2:
	testb	$32, 22(%rsp)
	je	.LBB49_4
	leaq	anon.0bc4b03b1367d57f1fe2ddddf8bed743.86.llvm.12602067952453011377(%rip), %rdi
	movl	$2, %esi
	xorl	%edx, %edx
	xorl	%eax, %eax
	callq	*open@GOTPCREL(%rip)
	cmpl	$-1, %eax
	je	.LBB49_11
.LBB49_4:
	testb	$32, 30(%rsp)
	je	.LBB49_6
	leaq	anon.0bc4b03b1367d57f1fe2ddddf8bed743.86.llvm.12602067952453011377(%rip), %rdi
	movl	$2, %esi
	xorl	%edx, %edx
	xorl	%eax, %eax
	callq	*open@GOTPCREL(%rip)
	cmpl	$-1, %eax
	je	.LBB49_11
.LBB49_6:
	testb	$32, 38(%rsp)
	je	.LBB49_8
	leaq	anon.0bc4b03b1367d57f1fe2ddddf8bed743.86.llvm.12602067952453011377(%rip), %rdi
	movl	$2, %esi
	xorl	%edx, %edx
	xorl	%eax, %eax
	callq	*open@GOTPCREL(%rip)
	cmpl	$-1, %eax
	je	.LBB49_11
.LBB49_8:
	movl	$1, %esi
	movl	$13, %edi
	callq	*signal@GOTPCREL(%rip)
	cmpq	$-1, %rax
	je	.LBB49_9
	leaq	208(%rsp), %rdi
	callq	_ZN3std3sys4unix6thread5guard4init17h967f45c73d7959b0E
	xorps	%xmm0, %xmm0
	movaps	%xmm0, 144(%rsp)
	movaps	%xmm0, 128(%rsp)
	movaps	%xmm0, 112(%rsp)
	movaps	%xmm0, 96(%rsp)
	movaps	%xmm0, 80(%rsp)
	movaps	%xmm0, 64(%rsp)
	movaps	%xmm0, 48(%rsp)
	movaps	%xmm0, 32(%rsp)
	movaps	%xmm0, 16(%rsp)
	movq	$0, 160(%rsp)
	leaq	16(%rsp), %rdx
	movl	$11, %edi
	xorl	%esi, %esi
	callq	*sigaction@GOTPCREL(%rip)
	cmpq	$0, 16(%rsp)
	jne	.LBB49_14
	movl	$134217732, 152(%rsp)
	leaq	_ZN3std3sys4unix14stack_overflow3imp14signal_handler17ha06c543ab9ef20d8E.llvm.3834475010564107798(%rip), %rax
	movq	%rax, 16(%rsp)
	leaq	16(%rsp), %rsi
	movl	$11, %edi
	xorl	%edx, %edx
	callq	*sigaction@GOTPCREL(%rip)
	movb	$1, _ZN3std3sys4unix14stack_overflow3imp13NEED_ALTSTACK17h961050a8662e81ccE.0.0.llvm.3834475010564107798(%rip)
.LBB49_14:
	leaq	16(%rsp), %rdx
	movl	$7, %edi
	xorl	%esi, %esi
	callq	*sigaction@GOTPCREL(%rip)
	cmpq	$0, 16(%rsp)
	jne	.LBB49_16
	movl	$134217732, 152(%rsp)
	leaq	_ZN3std3sys4unix14stack_overflow3imp14signal_handler17ha06c543ab9ef20d8E.llvm.3834475010564107798(%rip), %rax
	movq	%rax, 16(%rsp)
	leaq	16(%rsp), %rsi
	movl	$7, %edi
	xorl	%edx, %edx
	callq	*sigaction@GOTPCREL(%rip)
	movb	$1, _ZN3std3sys4unix14stack_overflow3imp13NEED_ALTSTACK17h961050a8662e81ccE.0.0.llvm.3834475010564107798(%rip)
.LBB49_16:
	callq	_ZN3std3sys4unix14stack_overflow3imp12make_handler17h0fe0e4154ecbd314E
	movq	%rax, _ZN3std3sys4unix14stack_overflow3imp13MAIN_ALTSTACK17h7561c108d1b18f16E.llvm.3834475010564107798(%rip)
	movl	$4, %edi
	callq	*malloc@GOTPCREL(%rip)
	testq	%rax, %rax
	je	.LBB49_42
	movq	%rax, 16(%rsp)
	movl	$1852399981, (%rax)
	movaps	.LCPI49_1(%rip), %xmm0
	movups	%xmm0, 24(%rsp)
	leaq	16(%rsp), %rdi
	callq	_ZN3std6thread6Thread3new17h4590feb8fe88131dE
	movq	%rax, %rbx
	movq	224(%rsp), %rax
	movq	%rax, 192(%rsp)
	movups	208(%rsp), %xmm0
	movaps	%xmm0, 176(%rsp)
	movq	%rbx, 8(%rsp)
	cmpl	$1, %fs:_ZN3std10sys_common11thread_info11THREAD_INFO7__getit5__KEY17he559176191ee98e5E@TPOFF
	jne	.LBB49_19
	movq	%fs:0, %rax
	leaq	_ZN3std10sys_common11thread_info11THREAD_INFO7__getit5__KEY17he559176191ee98e5E@TPOFF+8(%rax), %rax
	jmp	.LBB49_21
.LBB49_19:
.Ltmp321:
	callq	_ZN3std6thread5local4fast12Key$LT$T$GT$14try_initialize17h0c39230755d70b0eE
.Ltmp322:
	testq	%rax, %rax
	je	.LBB49_26
.LBB49_21:
	movq	(%rax), %rcx
	addq	$1, %rcx
	testq	%rcx, %rcx
	jle	.LBB49_22
	cmpq	$2, 8(%rax)
	jne	.LBB49_25
	movq	192(%rsp), %rax
	movq	%rax, 32(%rsp)
	movaps	176(%rsp), %xmm0
	movaps	%xmm0, 16(%rsp)
	movq	%rbx, 40(%rsp)
	leaq	16(%rsp), %rdi
	callq	_ZN3std6thread5local17LocalKey$LT$T$GT$4with17h9d8e87aba6a3710aE
.Ltmp330:
	leaq	_ZN5phatq4main17hff9feffff70b0fe5E(%rip), %rdi
	callq	_ZN3std10sys_common9backtrace28__rust_begin_short_backtrace17h71d897fbc9faf9b7E
.Ltmp331:
	movq	$0, 16(%rsp)
	movq	_ZN3std10sys_common7cleanup7CLEANUP17hf93903394b122ffdE.llvm.12471741053055422254(%rip), %rax
	cmpq	$3, %rax
	je	.LBB49_32
.LBB49_31:
	movb	$1, 8(%rsp)
	leaq	8(%rsp), %rax
	movq	%rax, 176(%rsp)
.Ltmp333:
	leaq	_ZN3std10sys_common7cleanup7CLEANUP17hf93903394b122ffdE.llvm.12471741053055422254(%rip), %rdi
	leaq	anon.78e977b96a0d72b929ec10a1bff3500a.44.llvm.18205574725411267575(%rip), %rcx
	leaq	176(%rsp), %rdx
	xorl	%esi, %esi
	callq	_ZN3std4sync4once4Once10call_inner17h751801c3dab1ebc9E
.Ltmp334:
.LBB49_32:
	cmpl	$1, 16(%rsp)
	jne	.LBB49_33
	movq	24(%rsp), %r15
	movq	32(%rsp), %rbx
.Ltmp336:
	movq	%r15, %rdi
	callq	*(%rbx)
.Ltmp337:
	movl	$101, %ebp
	cmpq	$0, 8(%rbx)
	je	.LBB49_37
	movq	%r15, %rdi
	callq	*free@GOTPCREL(%rip)
	jmp	.LBB49_37
.LBB49_33:
	movl	20(%rsp), %ebp
.LBB49_37:
	movl	%ebp, %eax
	addq	$232, %rsp
	.cfi_def_cfa_offset 40
	popq	%rbx
	.cfi_def_cfa_offset 32
	popq	%r14
	.cfi_def_cfa_offset 24
	popq	%r15
	.cfi_def_cfa_offset 16
	popq	%rbp
	.cfi_def_cfa_offset 8
	retq
.LBB49_9:
	.cfi_def_cfa_offset 272
	leaq	anon.0bc4b03b1367d57f1fe2ddddf8bed743.77.llvm.12602067952453011377(%rip), %rdi
	leaq	anon.0bc4b03b1367d57f1fe2ddddf8bed743.79.llvm.12602067952453011377(%rip), %rdx
	movl	$71, %esi
	callq	_ZN4core9panicking5panic17h879f53aa45bf615bE
	ud2
.LBB49_42:
	movl	$4, %edi
	movl	$1, %esi
	callq	_ZN5alloc5alloc18handle_alloc_error17h66207f37c5e1158cE
	ud2
.LBB49_22:
.Ltmp325:
	leaq	.Lanon.03fa34025239a254ab5d789983420479.1(%rip), %rdi
	leaq	anon.e41260ae20b75565edfc061c00c094c2.19.llvm.9647977104380098909(%rip), %rcx
	leaq	anon.e41260ae20b75565edfc061c00c094c2.65.llvm.9647977104380098909(%rip), %r8
	leaq	16(%rsp), %rdx
	movl	$24, %esi
	callq	_ZN4core6result13unwrap_failed17h9cb4e8dca1981ba0E
.Ltmp326:
	jmp	.LBB49_23
.LBB49_25:
.Ltmp327:
	leaq	anon.e41260ae20b75565edfc061c00c094c2.66.llvm.9647977104380098909(%rip), %rdi
	leaq	anon.e41260ae20b75565edfc061c00c094c2.67.llvm.9647977104380098909(%rip), %rdx
	movl	$38, %esi
	callq	_ZN4core9panicking5panic17h879f53aa45bf615bE
.Ltmp328:
	jmp	.LBB49_23
.LBB49_26:
.Ltmp323:
	leaq	anon.e41260ae20b75565edfc061c00c094c2.33.llvm.9647977104380098909(%rip), %rdi
	leaq	anon.e41260ae20b75565edfc061c00c094c2.17.llvm.9647977104380098909(%rip), %rcx
	leaq	anon.e41260ae20b75565edfc061c00c094c2.35.llvm.9647977104380098909(%rip), %r8
	leaq	16(%rsp), %rdx
	movl	$70, %esi
	callq	_ZN4core6result13unwrap_failed17h9cb4e8dca1981ba0E
.Ltmp324:
.LBB49_23:
	ud2
.LBB49_38:
.Ltmp338:
	movq	%rax, %r14
	movq	8(%rbx), %rsi
	movq	%r15, %rdi
	callq	_ZN5alloc5alloc8box_free17h292378dea4494778E
	jmp	.LBB49_41
.LBB49_40:
.Ltmp329:
	movq	%rax, %r14
	leaq	8(%rsp), %rdi
	callq	_ZN4core3ptr13drop_in_place17h4d6f1d849109aafcE
	jmp	.LBB49_41
.LBB49_39:
.Ltmp335:
	movq	%rax, %r14
	leaq	16(%rsp), %rdi
	callq	_ZN4core3ptr13drop_in_place17hf491eae1292f7e7dE
.LBB49_41:
	movq	%r14, %rdi
	callq	_Unwind_Resume@PLT
	ud2
.LBB49_29:
.Ltmp332:
	movq	%rax, %rdi
	callq	_ZN3std9panicking3try7cleanup17h06941c87b3e267bbE
	movq	%rax, 24(%rsp)
	movq	%rdx, 32(%rsp)
	movl	$1, 16(%rsp)
	movq	_ZN3std10sys_common7cleanup7CLEANUP17hf93903394b122ffdE.llvm.12471741053055422254(%rip), %rax
	cmpq	$3, %rax
	jne	.LBB49_31
	jmp	.LBB49_32
.Lfunc_end49:
	.size	main, .Lfunc_end49-main
	.cfi_endproc
	.section	.gcc_except_table,"a",@progbits
	.p2align	2
GCC_except_table49:
.Lexception17:
	.byte	255
	.byte	156
	.uleb128 .Lttbase1-.Lttbaseref1
.Lttbaseref1:
	.byte	1
	.uleb128 .Lcst_end17-.Lcst_begin17
.Lcst_begin17:
	.uleb128 .Lfunc_begin17-.Lfunc_begin17
	.uleb128 .Ltmp321-.Lfunc_begin17
	.byte	0
	.byte	0
	.uleb128 .Ltmp321-.Lfunc_begin17
	.uleb128 .Ltmp322-.Ltmp321
	.uleb128 .Ltmp329-.Lfunc_begin17
	.byte	0
	.uleb128 .Ltmp322-.Lfunc_begin17
	.uleb128 .Ltmp330-.Ltmp322
	.byte	0
	.byte	0
	.uleb128 .Ltmp330-.Lfunc_begin17
	.uleb128 .Ltmp331-.Ltmp330
	.uleb128 .Ltmp332-.Lfunc_begin17
	.byte	1
	.uleb128 .Ltmp333-.Lfunc_begin17
	.uleb128 .Ltmp334-.Ltmp333
	.uleb128 .Ltmp335-.Lfunc_begin17
	.byte	0
	.uleb128 .Ltmp336-.Lfunc_begin17
	.uleb128 .Ltmp337-.Ltmp336
	.uleb128 .Ltmp338-.Lfunc_begin17
	.byte	0
	.uleb128 .Ltmp337-.Lfunc_begin17
	.uleb128 .Ltmp325-.Ltmp337
	.byte	0
	.byte	0
	.uleb128 .Ltmp325-.Lfunc_begin17
	.uleb128 .Ltmp324-.Ltmp325
	.uleb128 .Ltmp329-.Lfunc_begin17
	.byte	0
	.uleb128 .Ltmp324-.Lfunc_begin17
	.uleb128 .Lfunc_end49-.Ltmp324
	.byte	0
	.byte	0
.Lcst_end17:
	.byte	1
	.byte	0
	.p2align	2
	.quad	0
.Lttbase1:
	.p2align	2

	.section	.text.__rust_alloc_error_handler,"ax",@progbits
	.p2align	4, 0x90
	.type	__rust_alloc_error_handler,@function
__rust_alloc_error_handler:
	.cfi_startproc
	pushq	%rax
	.cfi_def_cfa_offset 16
	callq	__rg_oom
	ud2
.Lfunc_end50:
	.size	__rust_alloc_error_handler, .Lfunc_end50-__rust_alloc_error_handler
	.cfi_endproc

	.section	.text._ZN9addr2line9path_push17hf8d245a68f55fb28E,"ax",@progbits
	.p2align	4, 0x90
	.type	_ZN9addr2line9path_push17hf8d245a68f55fb28E,@function
_ZN9addr2line9path_push17hf8d245a68f55fb28E:
	.cfi_startproc
	pushq	%r15
	.cfi_def_cfa_offset 16
	pushq	%r14
	.cfi_def_cfa_offset 24
	pushq	%r13
	.cfi_def_cfa_offset 32
	pushq	%r12
	.cfi_def_cfa_offset 40
	pushq	%rbx
	.cfi_def_cfa_offset 48
	.cfi_offset %rbx, -48
	.cfi_offset %r12, -40
	.cfi_offset %r13, -32
	.cfi_offset %r14, -24
	.cfi_offset %r15, -16
	movq	%rdx, %r14
	movq	%rsi, %r15
	movq	%rdi, %r12
	testq	%rdx, %rdx
	je	.LBB51_2
	cmpb	$47, (%r15)
	jne	.LBB51_2
	movq	%r14, %rdi
	callq	*malloc@GOTPCREL(%rip)
	testq	%rax, %rax
	je	.LBB51_28
	movq	%rax, %rbx
	movq	%rax, %rdi
	movq	%r15, %rsi
	movq	%r14, %rdx
	callq	*memcpy@GOTPCREL(%rip)
	cmpq	$0, 8(%r12)
	je	.LBB51_12
	movq	(%r12), %rdi
	callq	*free@GOTPCREL(%rip)
.LBB51_12:
	movq	%rbx, (%r12)
	movq	%r14, 8(%r12)
	movq	%r14, 16(%r12)
	jmp	.LBB51_13
.LBB51_2:
	movq	(%r12), %rax
	movq	16(%r12), %rbx
	testq	%rbx, %rbx
	je	.LBB51_4
	cmpb	$47, -1(%rbx,%rax)
	je	.LBB51_18
.LBB51_4:
	cmpq	8(%r12), %rbx
	jne	.LBB51_17
	movq	%rbx, %rcx
	incq	%rcx
	je	.LBB51_27
	leaq	(%rbx,%rbx), %rdx
	cmpq	%rcx, %rdx
	cmovaq	%rdx, %rcx
	cmpq	$8, %rcx
	movl	$8, %r13d
	cmovaq	%rcx, %r13
	testq	%rbx, %rbx
	je	.LBB51_7
	movq	%rax, %rdi
	movq	%r13, %rsi
	callq	*realloc@GOTPCREL(%rip)
	testq	%rax, %rax
	je	.LBB51_22
	movq	16(%r12), %rbx
	jmp	.LBB51_16
.LBB51_7:
	movq	%r13, %rdi
	callq	*malloc@GOTPCREL(%rip)
	testq	%rax, %rax
	je	.LBB51_22
	xorl	%ebx, %ebx
.LBB51_16:
	movq	%rax, (%r12)
	movq	%r13, 8(%r12)
.LBB51_17:
	movb	$47, (%rax,%rbx)
	movq	16(%r12), %rbx
	addq	$1, %rbx
	movq	%rbx, 16(%r12)
.LBB51_18:
	movq	8(%r12), %rax
	movq	%rax, %rcx
	subq	%rbx, %rcx
	cmpq	%r14, %rcx
	jae	.LBB51_26
	movq	%rbx, %rcx
	addq	%r14, %rcx
	jb	.LBB51_27
	leaq	(%rax,%rax), %rdx
	cmpq	%rcx, %rdx
	cmovaq	%rdx, %rcx
	cmpq	$8, %rcx
	movl	$8, %r13d
	cmovaq	%rcx, %r13
	testq	%rax, %rax
	je	.LBB51_21
	movq	(%r12), %rdi
	movq	%r13, %rsi
	callq	*realloc@GOTPCREL(%rip)
	testq	%rax, %rax
	je	.LBB51_22
	movq	16(%r12), %rbx
	jmp	.LBB51_25
.LBB51_21:
	movq	%r13, %rdi
	callq	*malloc@GOTPCREL(%rip)
	testq	%rax, %rax
	je	.LBB51_22
.LBB51_25:
	movq	%rax, (%r12)
	movq	%r13, 8(%r12)
.LBB51_26:
	addq	(%r12), %rbx
	movq	%rbx, %rdi
	movq	%r15, %rsi
	movq	%r14, %rdx
	callq	*memcpy@GOTPCREL(%rip)
	addq	%r14, 16(%r12)
.LBB51_13:
	popq	%rbx
	.cfi_def_cfa_offset 40
	popq	%r12
	.cfi_def_cfa_offset 32
	popq	%r13
	.cfi_def_cfa_offset 24
	popq	%r14
	.cfi_def_cfa_offset 16
	popq	%r15
	.cfi_def_cfa_offset 8
	retq
.LBB51_27:
	.cfi_def_cfa_offset 48
	callq	_ZN5alloc7raw_vec17capacity_overflow17hf6242dedb112d0d2E
	ud2
.LBB51_22:
	movl	$1, %esi
	movq	%r13, %rdi
	callq	_ZN5alloc5alloc18handle_alloc_error17h66207f37c5e1158cE
	ud2
.LBB51_28:
	movl	$1, %esi
	movq	%r14, %rdi
	callq	_ZN5alloc5alloc18handle_alloc_error17h66207f37c5e1158cE
	ud2
.Lfunc_end51:
	.size	_ZN9addr2line9path_push17hf8d245a68f55fb28E, .Lfunc_end51-_ZN9addr2line9path_push17hf8d245a68f55fb28E
	.cfi_endproc

	.section	".text._ZN5alloc3vec16Vec$LT$T$C$A$GT$6remove13assert_failed17hbcc4e3eed1375ee6E","ax",@progbits
	.p2align	4, 0x90
	.type	_ZN5alloc3vec16Vec$LT$T$C$A$GT$6remove13assert_failed17hbcc4e3eed1375ee6E,@function
_ZN5alloc3vec16Vec$LT$T$C$A$GT$6remove13assert_failed17hbcc4e3eed1375ee6E:
	.cfi_startproc
	subq	$104, %rsp
	.cfi_def_cfa_offset 112
	movq	%rdi, 8(%rsp)
	movq	%rsi, 16(%rsp)
	leaq	8(%rsp), %rax
	movq	%rax, 24(%rsp)
	leaq	_ZN4core3fmt3num3imp52_$LT$impl$u20$core..fmt..Display$u20$for$u20$u64$GT$3fmt17h4edfa60b6cc4e39cE(%rip), %rax
	movq	%rax, 32(%rsp)
	leaq	16(%rsp), %rcx
	movq	%rcx, 40(%rsp)
	movq	%rax, 48(%rsp)
	leaq	.Lanon.29bdc19a10f7175fe92a4b93a9e6a36e.14(%rip), %rax
	movq	%rax, 56(%rsp)
	movq	$3, 64(%rsp)
	movq	$0, 72(%rsp)
	leaq	24(%rsp), %rax
	movq	%rax, 88(%rsp)
	movq	$2, 96(%rsp)
	leaq	.Lanon.29bdc19a10f7175fe92a4b93a9e6a36e.15(%rip), %rsi
	leaq	56(%rsp), %rdi
	callq	_ZN4core9panicking9panic_fmt17h88d1befd03709389E
	ud2
.Lfunc_end52:
	.size	_ZN5alloc3vec16Vec$LT$T$C$A$GT$6remove13assert_failed17hbcc4e3eed1375ee6E, .Lfunc_end52-_ZN5alloc3vec16Vec$LT$T$C$A$GT$6remove13assert_failed17hbcc4e3eed1375ee6E
	.cfi_endproc

	.section	.text._ZN5alloc7raw_vec17capacity_overflow17hf6242dedb112d0d2E,"ax",@progbits
	.p2align	4, 0x90
	.type	_ZN5alloc7raw_vec17capacity_overflow17hf6242dedb112d0d2E,@function
_ZN5alloc7raw_vec17capacity_overflow17hf6242dedb112d0d2E:
	.cfi_startproc
	pushq	%rax
	.cfi_def_cfa_offset 16
	leaq	anon.12eb623b9239a2f32ea0990c5d61f433.7.llvm.10255030933693413512(%rip), %rdi
	leaq	anon.12eb623b9239a2f32ea0990c5d61f433.8.llvm.10255030933693413512(%rip), %rdx
	movl	$17, %esi
	callq	_ZN4core9panicking5panic17h879f53aa45bf615bE
	ud2
.Lfunc_end53:
	.size	_ZN5alloc7raw_vec17capacity_overflow17hf6242dedb112d0d2E, .Lfunc_end53-_ZN5alloc7raw_vec17capacity_overflow17hf6242dedb112d0d2E
	.cfi_endproc

	.section	.text.__rg_oom,"ax",@progbits
	.p2align	4, 0x90
	.type	__rg_oom,@function
__rg_oom:
	.cfi_startproc
	pushq	%rax
	.cfi_def_cfa_offset 16
	callq	rust_oom
	ud2
.Lfunc_end54:
	.size	__rg_oom, .Lfunc_end54-__rg_oom
	.cfi_endproc

	.section	.text._ZN5alloc5alloc18handle_alloc_error17h66207f37c5e1158cE,"ax",@progbits
	.p2align	4, 0x90
	.type	_ZN5alloc5alloc18handle_alloc_error17h66207f37c5e1158cE,@function
_ZN5alloc5alloc18handle_alloc_error17h66207f37c5e1158cE:
	.cfi_startproc
	pushq	%rax
	.cfi_def_cfa_offset 16
	callq	__rust_alloc_error_handler
	ud2
.Lfunc_end55:
	.size	_ZN5alloc5alloc18handle_alloc_error17h66207f37c5e1158cE, .Lfunc_end55-_ZN5alloc5alloc18handle_alloc_error17h66207f37c5e1158cE
	.cfi_endproc

	.section	.text._ZN5alloc6string6String15from_utf8_lossy17hd6263a717483f90eE,"ax",@progbits
	.p2align	4, 0x90
	.type	_ZN5alloc6string6String15from_utf8_lossy17hd6263a717483f90eE,@function
_ZN5alloc6string6String15from_utf8_lossy17hd6263a717483f90eE:
.Lfunc_begin18:
	.cfi_startproc
	.cfi_personality 155, DW.ref.rust_eh_personality
	.cfi_lsda 27, .Lexception18
	pushq	%rbp
	.cfi_def_cfa_offset 16
	pushq	%r15
	.cfi_def_cfa_offset 24
	pushq	%r14
	.cfi_def_cfa_offset 32
	pushq	%r13
	.cfi_def_cfa_offset 40
	pushq	%r12
	.cfi_def_cfa_offset 48
	pushq	%rbx
	.cfi_def_cfa_offset 56
	subq	$136, %rsp
	.cfi_def_cfa_offset 192
	.cfi_offset %rbx, -56
	.cfi_offset %r12, -48
	.cfi_offset %r13, -40
	.cfi_offset %r14, -32
	.cfi_offset %r15, -24
	.cfi_offset %rbp, -16
	movq	%rdx, %rbp
	movq	%rdi, %rbx
	movq	%rsi, 48(%rsp)
	movq	%rdx, 56(%rsp)
	leaq	80(%rsp), %rdi
	leaq	48(%rsp), %rsi
	callq	_ZN96_$LT$core..str..lossy..Utf8LossyChunksIter$u20$as$u20$core..iter..traits..iterator..Iterator$GT$4next17h6227cf385170126cE
	movq	80(%rsp), %r13
	testq	%r13, %r13
	je	.LBB56_1
	movq	88(%rsp), %rax
	movq	%rax, 16(%rsp)
	cmpq	%rbp, %rax
	jne	.LBB56_3
	movq	%r13, 8(%rbx)
	jmp	.LBB56_56
.LBB56_1:
	leaq	.Lanon.44270d117240652e2c29b279aed00257.9(%rip), %rax
	movq	%rax, 8(%rbx)
	xorl	%ebp, %ebp
.LBB56_56:
	movq	%rbp, 16(%rbx)
	movq	$0, (%rbx)
	jmp	.LBB56_57
.LBB56_3:
	movq	104(%rsp), %r15
	testq	%rbp, %rbp
	je	.LBB56_4
	movq	%rbp, %rdi
	callq	*malloc@GOTPCREL(%rip)
	movq	%rax, %rdi
	testq	%rax, %rax
	jne	.LBB56_6
	movl	$1, %esi
	movq	%rbp, %rdi
	callq	_ZN5alloc5alloc18handle_alloc_error17h66207f37c5e1158cE
	ud2
.LBB56_4:
	movl	$1, %edi
.LBB56_6:
	movq	%rbx, 72(%rsp)
	movq	%rdi, 24(%rsp)
	movq	%rbp, 32(%rsp)
	movq	$0, 40(%rsp)
	movq	16(%rsp), %rbx
	cmpq	%rbp, %rbx
	jbe	.LBB56_7
	movq	%rbp, %rax
	addq	%rbp, %rax
	cmpq	%rbx, %rax
	cmovbeq	%rbx, %rax
	cmpq	$8, %rax
	movl	$8, %r14d
	cmovaq	%rax, %r14
	testq	%rbp, %rbp
	cmoveq	%rbp, %rdi
	testq	%rdi, %rdi
	je	.LBB56_9
	testq	%rbp, %rbp
	je	.LBB56_9
	movq	%r14, %rsi
	callq	*realloc@GOTPCREL(%rip)
	jmp	.LBB56_12
.LBB56_7:
	movq	%rbp, %r14
	jmp	.LBB56_14
.LBB56_9:
	movq	%r14, %rdi
	callq	*malloc@GOTPCREL(%rip)
.LBB56_12:
	movq	%rax, %rdi
	testq	%rax, %rax
	je	.LBB56_54
	movq	%rdi, 24(%rsp)
	movq	%r14, 32(%rsp)
.LBB56_14:
	movq	%rdi, 8(%rsp)
	movq	%r13, %rsi
	movq	%rbx, %rdx
	callq	*memcpy@GOTPCREL(%rip)
	movq	%rbx, 40(%rsp)
	testq	%r15, %r15
	je	.LBB56_25
	movq	%r14, %rax
	subq	%rbx, %rax
	cmpq	$2, %rax
	ja	.LBB56_16
	movq	%rbx, %rax
	addq	$3, %rax
	movq	8(%rsp), %rdi
	jb	.LBB56_29
	leaq	(%r14,%r14), %rcx
	cmpq	%rax, %rcx
	cmovaq	%rcx, %rax
	cmpq	$8, %rax
	movl	$8, %ebx
	cmovaq	%rax, %rbx
	testq	%r14, %r14
	cmoveq	%r14, %rdi
	testq	%rdi, %rdi
	je	.LBB56_19
	testq	%r14, %r14
	je	.LBB56_19
	movq	%rbx, %rsi
	callq	*realloc@GOTPCREL(%rip)
	jmp	.LBB56_22
.LBB56_16:
	movq	8(%rsp), %rax
	jmp	.LBB56_24
.LBB56_19:
	movq	%rbx, %rdi
	callq	*malloc@GOTPCREL(%rip)
.LBB56_22:
	testq	%rax, %rax
	je	.LBB56_44
	movq	%rax, 24(%rsp)
	movq	%rbx, 32(%rsp)
	movq	%rbx, %r14
	movq	16(%rsp), %rbx
.LBB56_24:
	movb	.Lanon.44270d117240652e2c29b279aed00257.58+2(%rip), %cl
	movb	%cl, 2(%rax,%rbx)
	movzwl	.Lanon.44270d117240652e2c29b279aed00257.58(%rip), %ecx
	movq	%rax, 8(%rsp)
	movw	%cx, (%rax,%rbx)
	addq	$3, %rbx
	movq	%rbx, 16(%rsp)
	movq	%rbx, 40(%rsp)
.LBB56_25:
	movaps	48(%rsp), %xmm0
	movaps	%xmm0, 112(%rsp)
	jmp	.LBB56_26
	.p2align	4, 0x90
.LBB56_35:
	movq	%rbx, %r14
	movq	8(%rsp), %rax
.LBB56_52:
	movzbl	.Lanon.44270d117240652e2c29b279aed00257.58+2(%rip), %ecx
	movb	%cl, 2(%rax,%r15)
	movzwl	.Lanon.44270d117240652e2c29b279aed00257.58(%rip), %ecx
	movq	%rax, 8(%rsp)
	movw	%cx, (%rax,%r15)
	addq	$3, %r15
	movq	%r15, 16(%rsp)
.LBB56_26:
.Ltmp342:
	leaq	80(%rsp), %rdi
	leaq	112(%rsp), %rsi
	callq	_ZN96_$LT$core..str..lossy..Utf8LossyChunksIter$u20$as$u20$core..iter..traits..iterator..Iterator$GT$4next17h6227cf385170126cE
.Ltmp343:
	movq	80(%rsp), %r13
	testq	%r13, %r13
	movq	16(%rsp), %rdi
	je	.LBB56_28
	movq	88(%rsp), %rbp
	movq	104(%rsp), %r12
	movq	%r14, %rax
	subq	%rdi, %rax
	cmpq	%rbp, %rax
	jae	.LBB56_32
	movq	%rdi, %r15
	addq	%rbp, %r15
	jb	.LBB56_43
	leaq	(%r14,%r14), %rbx
	cmpq	%r15, %rbx
	cmovbeq	%r15, %rbx
	cmpq	$8, %rbx
	movl	$8, %eax
	cmovbeq	%rax, %rbx
	testq	%r14, %r14
	movq	8(%rsp), %rdi
	cmoveq	%r14, %rdi
	testq	%rdi, %rdi
	je	.LBB56_38
	testq	%r14, %r14
	je	.LBB56_38
	movq	%rbx, %rsi
	callq	*realloc@GOTPCREL(%rip)
	jmp	.LBB56_41
	.p2align	4, 0x90
.LBB56_32:
	leaq	(%rdi,%rbp), %r15
	movq	%r14, %rbx
	movq	8(%rsp), %rax
	jmp	.LBB56_33
	.p2align	4, 0x90
.LBB56_38:
	movq	%rbx, %rdi
	callq	*malloc@GOTPCREL(%rip)
.LBB56_41:
	testq	%rax, %rax
	je	.LBB56_44
	movq	%rax, 24(%rsp)
	movq	%rbx, %r14
	movq	16(%rsp), %rdi
.LBB56_33:
	movq	%rax, 8(%rsp)
	addq	%rax, %rdi
	movq	%r13, %rsi
	movq	%rbp, %rdx
	callq	*memcpy@GOTPCREL(%rip)
	movq	%r15, 16(%rsp)
	testq	%r12, %r12
	je	.LBB56_26
	movq	%rbx, %rax
	subq	%r15, %rax
	cmpq	$2, %rax
	ja	.LBB56_35
	movq	%r15, %r14
	addq	$3, %r14
	movq	8(%rsp), %rdi
	jb	.LBB56_53
	leaq	(%rbx,%rbx), %rax
	cmpq	%r14, %rax
	cmovaq	%rax, %r14
	cmpq	$8, %r14
	movl	$8, %eax
	cmovbeq	%rax, %r14
	testq	%rbx, %rbx
	cmoveq	%rbx, %rdi
	testq	%rdi, %rdi
	je	.LBB56_47
	testq	%rbx, %rbx
	je	.LBB56_47
	movq	%r14, %rsi
	callq	*realloc@GOTPCREL(%rip)
	jmp	.LBB56_50
.LBB56_47:
	movq	%r14, %rdi
	callq	*malloc@GOTPCREL(%rip)
.LBB56_50:
	testq	%rax, %rax
	je	.LBB56_54
	movq	%rax, 24(%rsp)
	jmp	.LBB56_52
.LBB56_28:
	movq	%rdi, 40(%rsp)
	movq	%r14, 32(%rsp)
	movq	72(%rsp), %rcx
	movq	%rdi, 24(%rcx)
	movq	24(%rsp), %rax
	movq	%rax, 8(%rcx)
	movq	32(%rsp), %rax
	movq	%rax, 16(%rcx)
	movq	$1, (%rcx)
.LBB56_57:
	addq	$136, %rsp
	.cfi_def_cfa_offset 56
	popq	%rbx
	.cfi_def_cfa_offset 48
	popq	%r12
	.cfi_def_cfa_offset 40
	popq	%r13
	.cfi_def_cfa_offset 32
	popq	%r14
	.cfi_def_cfa_offset 24
	popq	%r15
	.cfi_def_cfa_offset 16
	popq	%rbp
	.cfi_def_cfa_offset 8
	retq
.LBB56_44:
	.cfi_def_cfa_offset 192
	movl	$1, %esi
	movq	%rbx, %rdi
	callq	_ZN5alloc5alloc18handle_alloc_error17h66207f37c5e1158cE
	ud2
.LBB56_43:
	movq	16(%rsp), %rax
	movq	%rax, 40(%rsp)
	movq	%r14, 32(%rsp)
.Ltmp347:
	callq	_ZN5alloc7raw_vec17capacity_overflow17hf6242dedb112d0d2E
.Ltmp348:
	jmp	.LBB56_30
.LBB56_54:
	movl	$1, %esi
	movq	%r14, %rdi
	callq	_ZN5alloc5alloc18handle_alloc_error17h66207f37c5e1158cE
	ud2
.LBB56_53:
	movq	%r15, 40(%rsp)
	movq	%rbx, 32(%rsp)
.Ltmp345:
	callq	_ZN5alloc7raw_vec17capacity_overflow17hf6242dedb112d0d2E
.Ltmp346:
.LBB56_30:
	ud2
.LBB56_29:
.Ltmp339:
	callq	_ZN5alloc7raw_vec17capacity_overflow17hf6242dedb112d0d2E
.Ltmp340:
	jmp	.LBB56_30
.LBB56_60:
.Ltmp341:
	jmp	.LBB56_61
.LBB56_59:
.Ltmp349:
.LBB56_61:
	movq	%rax, %rbx
	jmp	.LBB56_62
.LBB56_58:
.Ltmp344:
	movq	%rax, %rbx
	movq	16(%rsp), %rax
	movq	%rax, 40(%rsp)
	movq	%r14, 32(%rsp)
.LBB56_62:
	leaq	24(%rsp), %rdi
	callq	_ZN4core3ptr13drop_in_place17h2c8c8105a67e37c4E
	movq	%rbx, %rdi
	callq	_Unwind_Resume@PLT
	ud2
.Lfunc_end56:
	.size	_ZN5alloc6string6String15from_utf8_lossy17hd6263a717483f90eE, .Lfunc_end56-_ZN5alloc6string6String15from_utf8_lossy17hd6263a717483f90eE
	.cfi_endproc
	.section	.gcc_except_table,"a",@progbits
	.p2align	2
GCC_except_table56:
.Lexception18:
	.byte	255
	.byte	255
	.byte	1
	.uleb128 .Lcst_end18-.Lcst_begin18
.Lcst_begin18:
	.uleb128 .Lfunc_begin18-.Lfunc_begin18
	.uleb128 .Ltmp342-.Lfunc_begin18
	.byte	0
	.byte	0
	.uleb128 .Ltmp342-.Lfunc_begin18
	.uleb128 .Ltmp343-.Ltmp342
	.uleb128 .Ltmp344-.Lfunc_begin18
	.byte	0
	.uleb128 .Ltmp343-.Lfunc_begin18
	.uleb128 .Ltmp347-.Ltmp343
	.byte	0
	.byte	0
	.uleb128 .Ltmp347-.Lfunc_begin18
	.uleb128 .Ltmp346-.Ltmp347
	.uleb128 .Ltmp349-.Lfunc_begin18
	.byte	0
	.uleb128 .Ltmp339-.Lfunc_begin18
	.uleb128 .Ltmp340-.Ltmp339
	.uleb128 .Ltmp341-.Lfunc_begin18
	.byte	0
	.uleb128 .Ltmp340-.Lfunc_begin18
	.uleb128 .Lfunc_end56-.Ltmp340
	.byte	0
	.byte	0
.Lcst_end18:
	.p2align	2

	.section	".text._ZN4core5slice29_$LT$impl$u20$$u5b$T$u5d$$GT$15copy_from_slice17len_mismatch_fail17he463d985e6a04243E","ax",@progbits
	.p2align	4, 0x90
	.type	_ZN4core5slice29_$LT$impl$u20$$u5b$T$u5d$$GT$15copy_from_slice17len_mismatch_fail17he463d985e6a04243E,@function
_ZN4core5slice29_$LT$impl$u20$$u5b$T$u5d$$GT$15copy_from_slice17len_mismatch_fail17he463d985e6a04243E:
	.cfi_startproc
	subq	$104, %rsp
	.cfi_def_cfa_offset 112
	movq	%rdi, 8(%rsp)
	movq	%rsi, 16(%rsp)
	leaq	16(%rsp), %rax
	movq	%rax, 24(%rsp)
	leaq	_ZN4core3fmt3num3imp52_$LT$impl$u20$core..fmt..Display$u20$for$u20$u64$GT$3fmt17h4edfa60b6cc4e39cE(%rip), %rax
	movq	%rax, 32(%rsp)
	leaq	8(%rsp), %rcx
	movq	%rcx, 40(%rsp)
	movq	%rax, 48(%rsp)
	leaq	.Lanon.44ae433a192b9572e1c5ee17f50f7d1f.21(%rip), %rax
	movq	%rax, 56(%rsp)
	movq	$3, 64(%rsp)
	movq	$0, 72(%rsp)
	leaq	24(%rsp), %rax
	movq	%rax, 88(%rsp)
	movq	$2, 96(%rsp)
	leaq	anon.ac18a618a2d0088e71f01dcba24088e4.1.llvm.11853955270181762029(%rip), %rsi
	leaq	56(%rsp), %rdi
	callq	_ZN4core9panicking9panic_fmt17h88d1befd03709389E
	ud2
.Lfunc_end57:
	.size	_ZN4core5slice29_$LT$impl$u20$$u5b$T$u5d$$GT$15copy_from_slice17len_mismatch_fail17he463d985e6a04243E, .Lfunc_end57-_ZN4core5slice29_$LT$impl$u20$$u5b$T$u5d$$GT$15copy_from_slice17len_mismatch_fail17he463d985e6a04243E
	.cfi_endproc

	.section	.text._ZN4core5slice5index22slice_index_order_fail17h984581c4ca8e835eE,"ax",@progbits
	.p2align	4, 0x90
	.type	_ZN4core5slice5index22slice_index_order_fail17h984581c4ca8e835eE,@function
_ZN4core5slice5index22slice_index_order_fail17h984581c4ca8e835eE:
	.cfi_startproc
	subq	$104, %rsp
	.cfi_def_cfa_offset 112
	movq	%rdi, 8(%rsp)
	movq	%rsi, 16(%rsp)
	leaq	8(%rsp), %rax
	movq	%rax, 24(%rsp)
	leaq	_ZN4core3fmt3num3imp52_$LT$impl$u20$core..fmt..Display$u20$for$u20$u64$GT$3fmt17h4edfa60b6cc4e39cE(%rip), %rax
	movq	%rax, 32(%rsp)
	leaq	16(%rsp), %rcx
	movq	%rcx, 40(%rsp)
	movq	%rax, 48(%rsp)
	leaq	.Lanon.07d698e93cf639ebfb2fa98af68a914a.17(%rip), %rax
	movq	%rax, 56(%rsp)
	movq	$2, 64(%rsp)
	movq	$0, 72(%rsp)
	leaq	24(%rsp), %rax
	movq	%rax, 88(%rsp)
	movq	$2, 96(%rsp)
	leaq	56(%rsp), %rdi
	movq	%rdx, %rsi
	callq	_ZN4core9panicking9panic_fmt17h88d1befd03709389E
	ud2
.Lfunc_end58:
	.size	_ZN4core5slice5index22slice_index_order_fail17h984581c4ca8e835eE, .Lfunc_end58-_ZN4core5slice5index22slice_index_order_fail17h984581c4ca8e835eE
	.cfi_endproc

	.section	.text._ZN4core5slice5index24slice_end_index_len_fail17h4d49418eab3a986eE,"ax",@progbits
	.p2align	4, 0x90
	.type	_ZN4core5slice5index24slice_end_index_len_fail17h4d49418eab3a986eE,@function
_ZN4core5slice5index24slice_end_index_len_fail17h4d49418eab3a986eE:
	.cfi_startproc
	subq	$104, %rsp
	.cfi_def_cfa_offset 112
	movq	%rdi, 8(%rsp)
	movq	%rsi, 16(%rsp)
	leaq	8(%rsp), %rax
	movq	%rax, 24(%rsp)
	leaq	_ZN4core3fmt3num3imp52_$LT$impl$u20$core..fmt..Display$u20$for$u20$u64$GT$3fmt17h4edfa60b6cc4e39cE(%rip), %rax
	movq	%rax, 32(%rsp)
	leaq	16(%rsp), %rcx
	movq	%rcx, 40(%rsp)
	movq	%rax, 48(%rsp)
	leaq	.Lanon.07d698e93cf639ebfb2fa98af68a914a.14(%rip), %rax
	movq	%rax, 56(%rsp)
	movq	$2, 64(%rsp)
	movq	$0, 72(%rsp)
	leaq	24(%rsp), %rax
	movq	%rax, 88(%rsp)
	movq	$2, 96(%rsp)
	leaq	56(%rsp), %rdi
	movq	%rdx, %rsi
	callq	_ZN4core9panicking9panic_fmt17h88d1befd03709389E
	ud2
.Lfunc_end59:
	.size	_ZN4core5slice5index24slice_end_index_len_fail17h4d49418eab3a986eE, .Lfunc_end59-_ZN4core5slice5index24slice_end_index_len_fail17h4d49418eab3a986eE
	.cfi_endproc

	.section	.text._ZN4core5slice5index26slice_start_index_len_fail17he782d03f18baf96dE,"ax",@progbits
	.p2align	4, 0x90
	.type	_ZN4core5slice5index26slice_start_index_len_fail17he782d03f18baf96dE,@function
_ZN4core5slice5index26slice_start_index_len_fail17he782d03f18baf96dE:
	.cfi_startproc
	subq	$104, %rsp
	.cfi_def_cfa_offset 112
	movq	%rdi, 8(%rsp)
	movq	%rsi, 16(%rsp)
	leaq	8(%rsp), %rax
	movq	%rax, 24(%rsp)
	leaq	_ZN4core3fmt3num3imp52_$LT$impl$u20$core..fmt..Display$u20$for$u20$u64$GT$3fmt17h4edfa60b6cc4e39cE(%rip), %rax
	movq	%rax, 32(%rsp)
	leaq	16(%rsp), %rcx
	movq	%rcx, 40(%rsp)
	movq	%rax, 48(%rsp)
	leaq	.Lanon.07d698e93cf639ebfb2fa98af68a914a.12(%rip), %rax
	movq	%rax, 56(%rsp)
	movq	$2, 64(%rsp)
	movq	$0, 72(%rsp)
	leaq	24(%rsp), %rax
	movq	%rax, 88(%rsp)
	movq	$2, 96(%rsp)
	leaq	56(%rsp), %rdi
	movq	%rdx, %rsi
	callq	_ZN4core9panicking9panic_fmt17h88d1befd03709389E
	ud2
.Lfunc_end60:
	.size	_ZN4core5slice5index26slice_start_index_len_fail17he782d03f18baf96dE, .Lfunc_end60-_ZN4core5slice5index26slice_start_index_len_fail17he782d03f18baf96dE
	.cfi_endproc

	.section	.text._ZN4core5slice5index29slice_end_index_overflow_fail17h937c70ccefa6c5f1E,"ax",@progbits
	.p2align	4, 0x90
	.type	_ZN4core5slice5index29slice_end_index_overflow_fail17h937c70ccefa6c5f1E,@function
_ZN4core5slice5index29slice_end_index_overflow_fail17h937c70ccefa6c5f1E:
	.cfi_startproc
	pushq	%rax
	.cfi_def_cfa_offset 16
	leaq	.Lanon.07d698e93cf639ebfb2fa98af68a914a.19(%rip), %rdi
	leaq	.Lanon.8115a165155122634cf2b0b10bfb816a.1(%rip), %rdx
	movl	$44, %esi
	callq	_ZN4core9panicking5panic17h879f53aa45bf615bE
	ud2
.Lfunc_end61:
	.size	_ZN4core5slice5index29slice_end_index_overflow_fail17h937c70ccefa6c5f1E, .Lfunc_end61-_ZN4core5slice5index29slice_end_index_overflow_fail17h937c70ccefa6c5f1E
	.cfi_endproc

	.section	.text._ZN4core6option13expect_failed17h35edea9229f0b68aE,"ax",@progbits
	.p2align	4, 0x90
	.type	_ZN4core6option13expect_failed17h35edea9229f0b68aE,@function
_ZN4core6option13expect_failed17h35edea9229f0b68aE:
	.cfi_startproc
	subq	$88, %rsp
	.cfi_def_cfa_offset 96
	leaq	anon.999f90281976093af398c8fa2dc01ca0.23.llvm.17788205047898379571(%rip), %rax
	movq	%rax, 8(%rsp)
	movq	$94, 16(%rsp)
	leaq	8(%rsp), %rax
	movq	%rax, 24(%rsp)
	leaq	_ZN44_$LT$$RF$T$u20$as$u20$core..fmt..Display$GT$3fmt17h521adbb50ac846e0E(%rip), %rax
	movq	%rax, 32(%rsp)
	leaq	.Lanon.44270d117240652e2c29b279aed00257.41(%rip), %rax
	movq	%rax, 40(%rsp)
	movq	$1, 48(%rsp)
	movq	$0, 56(%rsp)
	leaq	24(%rsp), %rax
	movq	%rax, 72(%rsp)
	movq	$1, 80(%rsp)
	leaq	anon.999f90281976093af398c8fa2dc01ca0.25.llvm.17788205047898379571(%rip), %rsi
	leaq	40(%rsp), %rdi
	callq	_ZN4core9panicking9panic_fmt17h88d1befd03709389E
	ud2
.Lfunc_end62:
	.size	_ZN4core6option13expect_failed17h35edea9229f0b68aE, .Lfunc_end62-_ZN4core6option13expect_failed17h35edea9229f0b68aE
	.cfi_endproc

	.section	.text._ZN4core3str8converts9from_utf817h3b89813707b77e55E,"ax",@progbits
	.p2align	4, 0x90
	.type	_ZN4core3str8converts9from_utf817h3b89813707b77e55E,@function
_ZN4core3str8converts9from_utf817h3b89813707b77e55E:
	.cfi_startproc
	pushq	%rbp
	.cfi_def_cfa_offset 16
	pushq	%r15
	.cfi_def_cfa_offset 24
	pushq	%r14
	.cfi_def_cfa_offset 32
	pushq	%rbx
	.cfi_def_cfa_offset 40
	.cfi_offset %rbx, -40
	.cfi_offset %r14, -32
	.cfi_offset %r15, -24
	.cfi_offset %rbp, -16
	xorl	%ebp, %ebp
	movq	%rdx, %rax
	subq	$15, %rax
	cmovaeq	%rax, %rbp
	testq	%rdx, %rdx
	je	.LBB63_46
	leaq	7(%rsi), %r8
	andq	$-8, %r8
	subq	%rsi, %r8
	xorl	%eax, %eax
	leaq	_ZN4core3str11validations15UTF8_CHAR_WIDTH17he0991647c57f32abE(%rip), %r9
	movabsq	$-9187201950435737472, %r10
	movl	$1, %r14d
	jmp	.LBB63_4
	.p2align	4, 0x90
.LBB63_2:
	addq	$1, %rax
.LBB63_3:
	cmpq	%rdx, %rax
	jae	.LBB63_46
.LBB63_4:
	movzbl	(%rsi,%rax), %ebx
	testb	%bl, %bl
	js	.LBB63_13
	cmpq	$-1, %r8
	je	.LBB63_2
	movl	%r8d, %ecx
	subl	%eax, %ecx
	testb	$7, %cl
	jne	.LBB63_2
	jmp	.LBB63_8
	.p2align	4, 0x90
.LBB63_7:
	addq	$16, %rax
.LBB63_8:
	cmpq	%rbp, %rax
	jae	.LBB63_10
	movq	8(%rsi,%rax), %rcx
	orq	(%rsi,%rax), %rcx
	testq	%r10, %rcx
	je	.LBB63_7
.LBB63_10:
	cmpq	%rdx, %rax
	jae	.LBB63_3
	.p2align	4, 0x90
.LBB63_11:
	cmpb	$0, (%rsi,%rax)
	js	.LBB63_3
	addq	$1, %rax
	cmpq	%rax, %rdx
	jne	.LBB63_11
	jmp	.LBB63_46
	.p2align	4, 0x90
.LBB63_13:
	movb	(%rbx,%r9), %cl
	movb	$1, %r11b
	cmpb	$4, %cl
	je	.LBB63_18
	cmpb	$3, %cl
	je	.LBB63_22
	cmpb	$2, %cl
	jne	.LBB63_48
	leaq	1(%rax), %rbx
	cmpq	%rdx, %rbx
	jae	.LBB63_47
	movb	(%rsi,%rbx), %cl
	andb	$-64, %cl
	cmpb	$-128, %cl
	je	.LBB63_45
	jmp	.LBB63_48
.LBB63_18:
	leaq	1(%rax), %rcx
	cmpq	%rdx, %rcx
	jae	.LBB63_47
	movb	(%rsi,%rcx), %cl
	cmpb	$-12, %bl
	je	.LBB63_26
	cmpb	$-16, %bl
	jne	.LBB63_28
	addb	$112, %cl
	cmpb	$48, %cl
	jb	.LBB63_31
	jmp	.LBB63_48
.LBB63_22:
	leaq	1(%rax), %rcx
	cmpq	%rdx, %rcx
	jae	.LBB63_47
	movb	(%rsi,%rcx), %r15b
	cmpb	$-19, %bl
	je	.LBB63_35
	cmpb	$-32, %bl
	jne	.LBB63_37
	andb	$-32, %r15b
	cmpb	$-96, %r15b
	je	.LBB63_43
	jmp	.LBB63_48
.LBB63_26:
	testb	%cl, %cl
	jns	.LBB63_48
	cmpb	$-112, %cl
	jb	.LBB63_31
	jmp	.LBB63_48
.LBB63_28:
	cmpb	$-65, %cl
	ja	.LBB63_48
	addb	$15, %bl
	cmpb	$2, %bl
	ja	.LBB63_48
	testb	%cl, %cl
	jns	.LBB63_48
.LBB63_31:
	leaq	2(%rax), %rcx
	cmpq	%rdx, %rcx
	jae	.LBB63_47
	movb	(%rsi,%rcx), %cl
	andb	$-64, %cl
	cmpb	$-128, %cl
	jne	.LBB63_51
	leaq	3(%rax), %rbx
	cmpq	%rdx, %rbx
	jae	.LBB63_47
	movb	(%rsi,%rbx), %cl
	andb	$-64, %cl
	cmpb	$-128, %cl
	je	.LBB63_45
	jmp	.LBB63_52
.LBB63_35:
	testb	%r15b, %r15b
	jns	.LBB63_48
	cmpb	$-96, %r15b
	jb	.LBB63_43
	jmp	.LBB63_48
.LBB63_37:
	leal	31(%rbx), %ecx
	cmpb	$11, %cl
	ja	.LBB63_40
	testb	%r15b, %r15b
	jns	.LBB63_48
	cmpb	$-64, %r15b
	jb	.LBB63_43
	jmp	.LBB63_48
.LBB63_40:
	cmpb	$-65, %r15b
	ja	.LBB63_48
	andb	$-2, %bl
	cmpb	$-18, %bl
	jne	.LBB63_48
	testb	%r15b, %r15b
	jns	.LBB63_48
.LBB63_43:
	leaq	2(%rax), %rbx
	cmpq	%rdx, %rbx
	jae	.LBB63_47
	movb	(%rsi,%rbx), %cl
	andb	$-64, %cl
	cmpb	$-128, %cl
	jne	.LBB63_51
.LBB63_45:
	addq	$1, %rbx
	movq	%rbx, %rax
	jmp	.LBB63_3
.LBB63_46:
	movq	%rsi, 8(%rdi)
	movq	%rdx, 16(%rdi)
	xorl	%eax, %eax
	jmp	.LBB63_49
.LBB63_47:
	xorl	%r14d, %r14d
	xorl	%r11d, %r11d
	jmp	.LBB63_48
.LBB63_51:
	movl	$2, %r14d
	jmp	.LBB63_48
.LBB63_52:
	movl	$3, %r14d
.LBB63_48:
	shlq	$8, %r14
	movzbl	%r11b, %ecx
	orq	%r14, %rcx
	movq	%rax, 8(%rdi)
	movq	%rcx, 16(%rdi)
	movl	$1, %eax
.LBB63_49:
	movq	%rax, (%rdi)
	popq	%rbx
	.cfi_def_cfa_offset 32
	popq	%r14
	.cfi_def_cfa_offset 24
	popq	%r15
	.cfi_def_cfa_offset 16
	popq	%rbp
	.cfi_def_cfa_offset 8
	retq
.Lfunc_end63:
	.size	_ZN4core3str8converts9from_utf817h3b89813707b77e55E, .Lfunc_end63-_ZN4core3str8converts9from_utf817h3b89813707b77e55E
	.cfi_endproc

	.section	".text._ZN42_$LT$$RF$T$u20$as$u20$core..fmt..Debug$GT$3fmt17h6e09ba761b85f2b5E","ax",@progbits
	.p2align	4, 0x90
	.type	_ZN42_$LT$$RF$T$u20$as$u20$core..fmt..Debug$GT$3fmt17h6e09ba761b85f2b5E,@function
_ZN42_$LT$$RF$T$u20$as$u20$core..fmt..Debug$GT$3fmt17h6e09ba761b85f2b5E:
	.cfi_startproc
	pushq	%r14
	.cfi_def_cfa_offset 16
	pushq	%rbx
	.cfi_def_cfa_offset 24
	subq	$104, %rsp
	.cfi_def_cfa_offset 128
	.cfi_offset %rbx, -24
	.cfi_offset %r14, -16
	movq	%rsi, %r14
	movq	(%rdi), %rbx
	cmpb	$1, (%rbx)
	jne	.LBB64_12
	addq	$1, %rbx
	movq	32(%r14), %rdi
	movq	40(%r14), %rax
	leaq	.Lanon.424f7e9325d4c643db8f11fd32ed9688.24(%rip), %rsi
	movl	$4, %edx
	callq	*24(%rax)
	movq	%rbx, 8(%rsp)
	testb	%al, %al
	je	.LBB64_2
.LBB64_4:
	movb	$1, %al
.LBB64_11:
	addq	$104, %rsp
	.cfi_def_cfa_offset 24
	popq	%rbx
	.cfi_def_cfa_offset 16
	popq	%r14
	.cfi_def_cfa_offset 8
	retq
.LBB64_12:
	.cfi_def_cfa_offset 128
	movq	32(%r14), %rdi
	movq	40(%r14), %rax
	movq	24(%rax), %rax
	leaq	.Lanon.424f7e9325d4c643db8f11fd32ed9688.26(%rip), %rsi
	movl	$4, %edx
	addq	$104, %rsp
	.cfi_def_cfa_offset 24
	popq	%rbx
	.cfi_def_cfa_offset 16
	popq	%r14
	.cfi_def_cfa_offset 8
	jmpq	*%rax
.LBB64_2:
	.cfi_def_cfa_offset 128
	testb	$4, 48(%r14)
	movq	32(%r14), %rdi
	movq	40(%r14), %rax
	movq	24(%rax), %rax
	jne	.LBB64_5
	leaq	.Lanon.97a8facaf9f06d724305ce2ee536a3cf.60(%rip), %rsi
	movl	$1, %edx
	callq	*%rax
	testb	%al, %al
	jne	.LBB64_4
	leaq	8(%rsp), %rdi
	movq	%r14, %rsi
	callq	_ZN42_$LT$$RF$T$u20$as$u20$core..fmt..Debug$GT$3fmt17hd3a7f37252b63a53E
	movl	%eax, %ecx
	movb	$1, %al
	testb	%cl, %cl
	jne	.LBB64_11
	jmp	.LBB64_10
.LBB64_5:
	leaq	anon.0a2705faa7b3978ea28b48cfb930b6a6.27.llvm.9680267978045891700(%rip), %rsi
	movl	$2, %edx
	callq	*%rax
	testb	%al, %al
	jne	.LBB64_4
	movl	48(%r14), %eax
	movb	$1, 7(%rsp)
	movups	32(%r14), %xmm0
	movaps	%xmm0, 80(%rsp)
	leaq	7(%rsp), %rcx
	movq	%rcx, 96(%rsp)
	movl	52(%r14), %ecx
	movb	56(%r14), %dl
	movups	(%r14), %xmm0
	movups	16(%r14), %xmm1
	movl	%eax, 64(%rsp)
	movl	%ecx, 68(%rsp)
	movb	%dl, 72(%rsp)
	movups	%xmm0, 16(%rsp)
	movups	%xmm1, 32(%rsp)
	leaq	80(%rsp), %rax
	movq	%rax, 48(%rsp)
	leaq	anon.5e53fb6953befab527faa36102d40855.6.llvm.2993377856497567720(%rip), %rax
	movq	%rax, 56(%rsp)
	leaq	8(%rsp), %rdi
	leaq	16(%rsp), %rsi
	callq	_ZN42_$LT$$RF$T$u20$as$u20$core..fmt..Debug$GT$3fmt17hd3a7f37252b63a53E
	testb	%al, %al
	jne	.LBB64_4
	movq	48(%rsp), %rdi
	movq	56(%rsp), %rax
	leaq	anon.0a2705faa7b3978ea28b48cfb930b6a6.19.llvm.9680267978045891700(%rip), %rsi
	movl	$2, %edx
	callq	*24(%rax)
	movl	%eax, %ecx
	movb	$1, %al
	testb	%cl, %cl
	jne	.LBB64_11
.LBB64_10:
	movq	32(%r14), %rdi
	movq	40(%r14), %rax
	leaq	.Lanon.44270d117240652e2c29b279aed00257.43(%rip), %rsi
	movl	$1, %edx
	callq	*24(%rax)
	addq	$104, %rsp
	.cfi_def_cfa_offset 24
	popq	%rbx
	.cfi_def_cfa_offset 16
	popq	%r14
	.cfi_def_cfa_offset 8
	retq
.Lfunc_end64:
	.size	_ZN42_$LT$$RF$T$u20$as$u20$core..fmt..Debug$GT$3fmt17h6e09ba761b85f2b5E, .Lfunc_end64-_ZN42_$LT$$RF$T$u20$as$u20$core..fmt..Debug$GT$3fmt17h6e09ba761b85f2b5E
	.cfi_endproc

	.section	".text._ZN71_$LT$core..ops..range..Range$LT$Idx$GT$$u20$as$u20$core..fmt..Debug$GT$3fmt17h537980ad1db05514E","ax",@progbits
	.p2align	4, 0x90
	.type	_ZN71_$LT$core..ops..range..Range$LT$Idx$GT$$u20$as$u20$core..fmt..Debug$GT$3fmt17h537980ad1db05514E,@function
_ZN71_$LT$core..ops..range..Range$LT$Idx$GT$$u20$as$u20$core..fmt..Debug$GT$3fmt17h537980ad1db05514E:
	.cfi_startproc
	pushq	%r15
	.cfi_def_cfa_offset 16
	pushq	%r14
	.cfi_def_cfa_offset 24
	pushq	%rbx
	.cfi_def_cfa_offset 32
	subq	$128, %rsp
	.cfi_def_cfa_offset 160
	.cfi_offset %rbx, -32
	.cfi_offset %r14, -24
	.cfi_offset %r15, -16
	movq	%rsi, %r15
	movq	%rdi, %r14
	movl	48(%rsi), %eax
	testb	$16, %al
	jne	.LBB65_9
	movq	(%r14), %rcx
	testb	$32, %al
	jne	.LBB65_11
	movl	$39, %eax
	cmpq	$10000, %rcx
	jb	.LBB65_15
	movl	$39, %ebx
	movabsq	$3777893186295716171, %r8
	leaq	anon.c6988f58eecb6b8d7c0eb83e83c77e96.5.llvm.2672803169347448000(%rip), %r9
	.p2align	4, 0x90
.LBB65_4:
	movq	%rcx, %rax
	mulq	%r8
	shrq	$11, %rdx
	imull	$10000, %edx, %eax
	movl	%ecx, %esi
	subl	%eax, %esi
	movzwl	%si, %eax
	shrl	$2, %eax
	imull	$5243, %eax, %edi
	shrl	$17, %edi
	imull	$100, %edi, %eax
	subl	%eax, %esi
	movzwl	%si, %esi
	leaq	-4(%rbx), %rax
	movzwl	(%r9,%rdi,2), %edi
	movw	%di, -4(%rsp,%rbx)
	movzwl	(%r9,%rsi,2), %esi
	movw	%si, -2(%rsp,%rbx)
	movq	%rax, %rbx
	cmpq	$99999999, %rcx
	movq	%rdx, %rcx
	ja	.LBB65_4
	cmpq	$99, %rdx
	jle	.LBB65_7
.LBB65_6:
	movzwl	%dx, %ecx
	shrl	$2, %ecx
	imull	$5243, %ecx, %ecx
	shrl	$17, %ecx
	imull	$100, %ecx, %esi
	subl	%esi, %edx
	movzwl	%dx, %edx
	leaq	anon.c6988f58eecb6b8d7c0eb83e83c77e96.5.llvm.2672803169347448000(%rip), %rsi
	movzwl	(%rsi,%rdx,2), %edx
	movw	%dx, -2(%rsp,%rax)
	addq	$-2, %rax
	movq	%rcx, %rdx
.LBB65_7:
	cmpq	$10, %rdx
	jge	.LBB65_16
	addb	$48, %dl
	movb	%dl, -1(%rsp,%rax)
	addq	$-1, %rax
	jmp	.LBB65_17
.LBB65_9:
	movq	(%r14), %rcx
	leaq	128(%rsp), %r8
	xorl	%r9d, %r9d
	movq	%rcx, %rax
	.p2align	4, 0x90
.LBB65_10:
	shrq	$4, %rax
	andb	$15, %cl
	leal	48(%rcx), %edx
	leal	87(%rcx), %esi
	cmpb	$10, %cl
	movzbl	%dl, %ecx
	movzbl	%sil, %edx
	cmovbl	%ecx, %edx
	movb	%dl, -1(%r8)
	addq	$-1, %r8
	addq	$1, %r9
	movq	%rax, %rcx
	testq	%rax, %rax
	jne	.LBB65_10
	jmp	.LBB65_13
.LBB65_11:
	leaq	128(%rsp), %r8
	xorl	%r9d, %r9d
	movq	%rcx, %rax
	.p2align	4, 0x90
.LBB65_12:
	shrq	$4, %rax
	andb	$15, %cl
	leal	48(%rcx), %edx
	leal	55(%rcx), %esi
	cmpb	$10, %cl
	movzbl	%dl, %ecx
	movzbl	%sil, %edx
	cmovbl	%ecx, %edx
	movb	%dl, -1(%r8)
	addq	$-1, %r8
	addq	$1, %r9
	movq	%rax, %rcx
	testq	%rax, %rax
	jne	.LBB65_12
.LBB65_13:
	movl	$128, %edi
	subq	%r9, %rdi
	cmpq	$129, %rdi
	jae	.LBB65_42
	leaq	.Lanon.97a8facaf9f06d724305ce2ee536a3cf.79(%rip), %rdx
	movl	$2, %ecx
	movq	%r15, %rdi
	movl	$1, %esi
	callq	_ZN4core3fmt9Formatter12pad_integral17h12e30b8708a6ddceE
	movb	$1, %bl
	testb	%al, %al
	je	.LBB65_18
	jmp	.LBB65_41
.LBB65_15:
	movq	%rcx, %rdx
	cmpq	$99, %rdx
	jg	.LBB65_6
	jmp	.LBB65_7
.LBB65_16:
	leaq	anon.c6988f58eecb6b8d7c0eb83e83c77e96.5.llvm.2672803169347448000(%rip), %rcx
	movzwl	(%rcx,%rdx,2), %ecx
	movw	%cx, -2(%rsp,%rax)
	addq	$-2, %rax
.LBB65_17:
	leaq	(%rsp,%rax), %r8
	movl	$39, %r9d
	subq	%rax, %r9
	leaq	.Lanon.44270d117240652e2c29b279aed00257.9(%rip), %rdx
	movq	%r15, %rdi
	movl	$1, %esi
	xorl	%ecx, %ecx
	callq	_ZN4core3fmt9Formatter12pad_integral17h12e30b8708a6ddceE
	movb	$1, %bl
	testb	%al, %al
	jne	.LBB65_41
.LBB65_18:
	movq	32(%r15), %rdi
	movq	40(%r15), %rsi
	leaq	.Lanon.1efb91a4c902f180378aeb0008a71cc1.6(%rip), %rax
	movq	%rax, (%rsp)
	movq	$1, 8(%rsp)
	movq	$0, 16(%rsp)
	leaq	.Lanon.44270d117240652e2c29b279aed00257.9(%rip), %rax
	movq	%rax, 32(%rsp)
	movq	$0, 40(%rsp)
	movq	%rsp, %rdx
	callq	_ZN4core3fmt5write17h5f7d08b16a082aa3E
	movb	$1, %bl
	testb	%al, %al
	jne	.LBB65_41
	movl	48(%r15), %eax
	testb	$16, %al
	jne	.LBB65_24
	movq	8(%r14), %rcx
	testb	$32, %al
	jne	.LBB65_28
	movl	$39, %eax
	cmpq	$10000, %rcx
	jb	.LBB65_33
	movl	$39, %ebx
	movabsq	$3777893186295716171, %r8
	leaq	anon.c6988f58eecb6b8d7c0eb83e83c77e96.5.llvm.2672803169347448000(%rip), %r9
	.p2align	4, 0x90
.LBB65_23:
	movq	%rcx, %rax
	mulq	%r8
	shrq	$11, %rdx
	imull	$10000, %edx, %eax
	movl	%ecx, %esi
	subl	%eax, %esi
	movzwl	%si, %eax
	shrl	$2, %eax
	imull	$5243, %eax, %edi
	shrl	$17, %edi
	imull	$100, %edi, %eax
	subl	%eax, %esi
	movzwl	%si, %esi
	leaq	-4(%rbx), %rax
	movzwl	(%r9,%rdi,2), %edi
	movw	%di, -4(%rsp,%rbx)
	movzwl	(%r9,%rsi,2), %esi
	movw	%si, -2(%rsp,%rbx)
	movq	%rax, %rbx
	cmpq	$99999999, %rcx
	movq	%rdx, %rcx
	ja	.LBB65_23
	jmp	.LBB65_34
.LBB65_24:
	movq	8(%r14), %rcx
	leaq	128(%rsp), %r8
	xorl	%r9d, %r9d
	movq	%rcx, %rax
	.p2align	4, 0x90
.LBB65_25:
	shrq	$4, %rax
	andb	$15, %cl
	leal	48(%rcx), %edx
	leal	87(%rcx), %esi
	cmpb	$10, %cl
	movzbl	%dl, %ecx
	movzbl	%sil, %edx
	cmovbl	%ecx, %edx
	movb	%dl, -1(%r8)
	addq	$-1, %r8
	addq	$1, %r9
	movq	%rax, %rcx
	testq	%rax, %rax
	jne	.LBB65_25
	movl	$128, %edi
	subq	%r9, %rdi
	cmpq	$129, %rdi
	jae	.LBB65_42
.LBB65_31:
	leaq	.Lanon.97a8facaf9f06d724305ce2ee536a3cf.79(%rip), %rdx
	movl	$2, %ecx
	movq	%r15, %rdi
	movl	$1, %esi
	callq	_ZN4core3fmt9Formatter12pad_integral17h12e30b8708a6ddceE
	testb	%al, %al
	jne	.LBB65_40
	xorl	%ebx, %ebx
	jmp	.LBB65_41
.LBB65_28:
	leaq	128(%rsp), %r8
	xorl	%r9d, %r9d
	movq	%rcx, %rax
	.p2align	4, 0x90
.LBB65_29:
	shrq	$4, %rax
	andb	$15, %cl
	leal	48(%rcx), %edx
	leal	55(%rcx), %esi
	cmpb	$10, %cl
	movzbl	%dl, %ecx
	movzbl	%sil, %edx
	cmovbl	%ecx, %edx
	movb	%dl, -1(%r8)
	addq	$-1, %r8
	addq	$1, %r9
	movq	%rax, %rcx
	testq	%rax, %rax
	jne	.LBB65_29
	movl	$128, %edi
	subq	%r9, %rdi
	cmpq	$129, %rdi
	jb	.LBB65_31
.LBB65_42:
	leaq	anon.c6988f58eecb6b8d7c0eb83e83c77e96.1.llvm.2672803169347448000(%rip), %rdx
	movl	$128, %esi
	callq	_ZN4core5slice5index26slice_start_index_len_fail17he782d03f18baf96dE
	ud2
.LBB65_33:
	movq	%rcx, %rdx
.LBB65_34:
	cmpq	$99, %rdx
	jle	.LBB65_36
	movzwl	%dx, %ecx
	shrl	$2, %ecx
	imull	$5243, %ecx, %ecx
	shrl	$17, %ecx
	imull	$100, %ecx, %esi
	subl	%esi, %edx
	movzwl	%dx, %edx
	leaq	anon.c6988f58eecb6b8d7c0eb83e83c77e96.5.llvm.2672803169347448000(%rip), %rsi
	movzwl	(%rsi,%rdx,2), %edx
	movw	%dx, -2(%rsp,%rax)
	addq	$-2, %rax
	movq	%rcx, %rdx
.LBB65_36:
	cmpq	$10, %rdx
	jge	.LBB65_38
	addb	$48, %dl
	movb	%dl, -1(%rsp,%rax)
	addq	$-1, %rax
	jmp	.LBB65_39
.LBB65_38:
	leaq	anon.c6988f58eecb6b8d7c0eb83e83c77e96.5.llvm.2672803169347448000(%rip), %rcx
	movzwl	(%rcx,%rdx,2), %ecx
	movw	%cx, -2(%rsp,%rax)
	addq	$-2, %rax
.LBB65_39:
	leaq	(%rsp,%rax), %r8
	movl	$39, %r9d
	subq	%rax, %r9
	leaq	.Lanon.44270d117240652e2c29b279aed00257.9(%rip), %rdx
	xorl	%ebx, %ebx
	movq	%r15, %rdi
	movl	$1, %esi
	xorl	%ecx, %ecx
	callq	_ZN4core3fmt9Formatter12pad_integral17h12e30b8708a6ddceE
	testb	%al, %al
	je	.LBB65_41
.LBB65_40:
	movb	$1, %bl
.LBB65_41:
	movl	%ebx, %eax
	addq	$128, %rsp
	.cfi_def_cfa_offset 32
	popq	%rbx
	.cfi_def_cfa_offset 24
	popq	%r14
	.cfi_def_cfa_offset 16
	popq	%r15
	.cfi_def_cfa_offset 8
	retq
.Lfunc_end65:
	.size	_ZN71_$LT$core..ops..range..Range$LT$Idx$GT$$u20$as$u20$core..fmt..Debug$GT$3fmt17h537980ad1db05514E, .Lfunc_end65-_ZN71_$LT$core..ops..range..Range$LT$Idx$GT$$u20$as$u20$core..fmt..Debug$GT$3fmt17h537980ad1db05514E
	.cfi_endproc

	.section	.text._ZN4core3str16slice_error_fail17h5420125e9203fbcbE,"ax",@progbits
	.p2align	4, 0x90
	.type	_ZN4core3str16slice_error_fail17h5420125e9203fbcbE,@function
_ZN4core3str16slice_error_fail17h5420125e9203fbcbE:
	.cfi_startproc
	subq	$216, %rsp
	.cfi_def_cfa_offset 224
	movq	%rdx, 192(%rsp)
	movq	%rcx, 200(%rsp)
	movb	$1, %r11b
	movq	%rsi, %r9
	cmpq	$257, %rsi
	jb	.LBB66_7
	movl	$255, %r10d
	subq	%rsi, %r10
	movl	$256, %eax
	xorl	%r11d, %r11d
.LBB66_2:
	cmpq	%rsi, %rax
	jae	.LBB66_4
	cmpb	$-65, (%rdi,%rax)
	jg	.LBB66_6
.LBB66_4:
	leaq	-1(%rax), %r9
	cmpq	$1, %rax
	je	.LBB66_7
	addq	%r10, %rax
	cmpq	$256, %rax
	movq	%r9, %rax
	jne	.LBB66_2
	jmp	.LBB66_7
.LBB66_6:
	xorl	%r11d, %r11d
	movq	%rax, %r9
.LBB66_7:
	movq	%rdi, 144(%rsp)
	movq	%r9, 152(%rsp)
	leaq	.Lanon.44270d117240652e2c29b279aed00257.9(%rip), %r9
	leaq	.Lanon.e823fe82331a1e884aacab67e3c3df5b.35(%rip), %r10
	testb	%r11b, %r11b
	cmovneq	%r9, %r10
	xorb	$1, %r11b
	movzbl	%r11b, %eax
	leaq	(%rax,%rax,4), %rax
	movq	%r10, 160(%rsp)
	movq	%rax, 168(%rsp)
	cmpq	%rsi, %rdx
	ja	.LBB66_10
	cmpq	%rsi, %rcx
	jbe	.LBB66_11
	movq	%rcx, %rdx
.LBB66_10:
	movq	%rdx, 176(%rsp)
	leaq	176(%rsp), %rax
	movq	%rax, 64(%rsp)
	leaq	_ZN4core3fmt3num3imp52_$LT$impl$u20$core..fmt..Display$u20$for$u20$u64$GT$3fmt17h4edfa60b6cc4e39cE(%rip), %rax
	movq	%rax, 72(%rsp)
	leaq	144(%rsp), %rax
	movq	%rax, 80(%rsp)
	leaq	_ZN44_$LT$$RF$T$u20$as$u20$core..fmt..Display$GT$3fmt17h521adbb50ac846e0E(%rip), %rax
	movq	%rax, 88(%rsp)
	leaq	160(%rsp), %rcx
	movq	%rcx, 96(%rsp)
	movq	%rax, 104(%rsp)
	leaq	.Lanon.e823fe82331a1e884aacab67e3c3df5b.38(%rip), %rax
	movq	%rax, 16(%rsp)
	movq	$3, 24(%rsp)
	movq	$0, 32(%rsp)
	leaq	64(%rsp), %rax
	movq	%rax, 48(%rsp)
	movq	$3, 56(%rsp)
	leaq	16(%rsp), %rdi
	movq	%r8, %rsi
	callq	_ZN4core9panicking9panic_fmt17h88d1befd03709389E
	ud2
.LBB66_11:
	cmpq	%rcx, %rdx
	jbe	.LBB66_13
	leaq	192(%rsp), %rax
	movq	%rax, 64(%rsp)
	leaq	_ZN4core3fmt3num3imp52_$LT$impl$u20$core..fmt..Display$u20$for$u20$u64$GT$3fmt17h4edfa60b6cc4e39cE(%rip), %rax
	movq	%rax, 72(%rsp)
	leaq	200(%rsp), %rcx
	movq	%rcx, 80(%rsp)
	movq	%rax, 88(%rsp)
	leaq	144(%rsp), %rax
	movq	%rax, 96(%rsp)
	leaq	_ZN44_$LT$$RF$T$u20$as$u20$core..fmt..Display$GT$3fmt17h521adbb50ac846e0E(%rip), %rax
	movq	%rax, 104(%rsp)
	leaq	160(%rsp), %rcx
	movq	%rcx, 112(%rsp)
	movq	%rax, 120(%rsp)
	leaq	.Lanon.e823fe82331a1e884aacab67e3c3df5b.42(%rip), %rax
	movq	%rax, 16(%rsp)
	movq	$4, 24(%rsp)
	movq	$0, 32(%rsp)
	leaq	64(%rsp), %rax
	movq	%rax, 48(%rsp)
	movq	$4, 56(%rsp)
	leaq	16(%rsp), %rdi
	movq	%r8, %rsi
	callq	_ZN4core9panicking9panic_fmt17h88d1befd03709389E
	ud2
.LBB66_13:
	testq	%rdx, %rdx
	je	.LBB66_17
	cmpq	%rsi, %rdx
	je	.LBB66_17
	jae	.LBB66_18
	cmpb	$-64, (%rdi,%rdx)
	jl	.LBB66_18
.LBB66_17:
	movq	%rcx, %rdx
.LBB66_18:
	movq	%rdx, 208(%rsp)
	testq	%rdx, %rdx
	je	.LBB66_25
	cmpq	%rsi, %rdx
	je	.LBB66_25
	leaq	1(%rsi), %rax
.LBB66_21:
	cmpq	%rsi, %rdx
	jae	.LBB66_23
	cmpb	$-64, (%rdi,%rdx)
	jge	.LBB66_27
.LBB66_23:
	leaq	-1(%rdx), %rcx
	cmpq	$1, %rdx
	je	.LBB66_26
	cmpq	%rdx, %rax
	movq	%rcx, %rdx
	jne	.LBB66_21
	jmp	.LBB66_26
.LBB66_25:
	movq	%rdx, %rcx
.LBB66_26:
	movq	%rcx, %rdx
.LBB66_27:
	cmpq	%rsi, %rdx
	jne	.LBB66_29
.LBB66_28:
	leaq	.Lanon.03fa34025239a254ab5d789983420479.9(%rip), %rdi
	movl	$43, %esi
	movq	%r8, %rdx
	callq	_ZN4core9panicking5panic17h879f53aa45bf615bE
	ud2
.LBB66_29:
	leaq	(%rdi,%rdx), %rax
	movzbl	(%rax), %ecx
	testb	%cl, %cl
	js	.LBB66_31
	movl	%ecx, 12(%rsp)
	movl	$1, %eax
	jmp	.LBB66_46
.LBB66_31:
	addq	%rsi, %rdi
	leaq	1(%rax), %r10
	xorl	%esi, %esi
	movq	%rdi, %r9
	cmpq	%rdi, %r10
	je	.LBB66_33
	movzbl	1(%rax), %esi
	addq	$2, %rax
	andl	$63, %esi
	movq	%rax, %r9
.LBB66_33:
	movl	%ecx, %eax
	andl	$31, %eax
	cmpb	$-33, %cl
	jbe	.LBB66_40
	xorl	%r11d, %r11d
	movq	%rdi, %r10
	cmpq	%rdi, %r9
	je	.LBB66_36
	movzbl	(%r9), %r11d
	addq	$1, %r9
	andl	$63, %r11d
	movq	%r9, %r10
.LBB66_36:
	shll	$6, %esi
	orl	%r11d, %esi
	cmpb	$-16, %cl
	jb	.LBB66_41
	xorl	%ecx, %ecx
	cmpq	%rdi, %r10
	je	.LBB66_39
	movzbl	(%r10), %ecx
	andl	$63, %ecx
.LBB66_39:
	andl	$7, %eax
	shll	$18, %eax
	shll	$6, %esi
	orl	%eax, %esi
	orl	%ecx, %esi
	cmpl	$1114112, %esi
	jne	.LBB66_43
	jmp	.LBB66_28
.LBB66_40:
	shll	$6, %eax
	jmp	.LBB66_42
.LBB66_41:
	shll	$12, %eax
.LBB66_42:
	orl	%eax, %esi
.LBB66_43:
	movl	%esi, 12(%rsp)
	movl	$1, %eax
	cmpl	$128, %esi
	jb	.LBB66_46
	movl	$2, %eax
	cmpl	$2048, %esi
	jb	.LBB66_46
	cmpl	$65536, %esi
	movl	$4, %eax
	sbbq	$0, %rax
.LBB66_46:
	addq	%rdx, %rax
	movq	%rdx, 176(%rsp)
	movq	%rax, 184(%rsp)
	leaq	208(%rsp), %rax
	movq	%rax, 64(%rsp)
	leaq	_ZN4core3fmt3num3imp52_$LT$impl$u20$core..fmt..Display$u20$for$u20$u64$GT$3fmt17h4edfa60b6cc4e39cE(%rip), %rax
	movq	%rax, 72(%rsp)
	leaq	12(%rsp), %rax
	movq	%rax, 80(%rsp)
	leaq	_ZN41_$LT$char$u20$as$u20$core..fmt..Debug$GT$3fmt17hca3a25341316357fE(%rip), %rax
	movq	%rax, 88(%rsp)
	leaq	176(%rsp), %rax
	movq	%rax, 96(%rsp)
	leaq	_ZN71_$LT$core..ops..range..Range$LT$Idx$GT$$u20$as$u20$core..fmt..Debug$GT$3fmt17h537980ad1db05514E(%rip), %rax
	movq	%rax, 104(%rsp)
	leaq	144(%rsp), %rax
	movq	%rax, 112(%rsp)
	leaq	_ZN44_$LT$$RF$T$u20$as$u20$core..fmt..Display$GT$3fmt17h521adbb50ac846e0E(%rip), %rax
	movq	%rax, 120(%rsp)
	leaq	160(%rsp), %rcx
	movq	%rcx, 128(%rsp)
	movq	%rax, 136(%rsp)
	leaq	.Lanon.e823fe82331a1e884aacab67e3c3df5b.46(%rip), %rax
	movq	%rax, 16(%rsp)
	movq	$5, 24(%rsp)
	movq	$0, 32(%rsp)
	leaq	64(%rsp), %rax
	movq	%rax, 48(%rsp)
	movq	$5, 56(%rsp)
	leaq	16(%rsp), %rdi
	movq	%r8, %rsi
	callq	_ZN4core9panicking9panic_fmt17h88d1befd03709389E
	ud2
.Lfunc_end66:
	.size	_ZN4core3str16slice_error_fail17h5420125e9203fbcbE, .Lfunc_end66-_ZN4core3str16slice_error_fail17h5420125e9203fbcbE
	.cfi_endproc

	.section	".text._ZN64_$LT$core..str..error..Utf8Error$u20$as$u20$core..fmt..Debug$GT$3fmt17h0717dee4c9b7e811E","ax",@progbits
	.p2align	4, 0x90
	.type	_ZN64_$LT$core..str..error..Utf8Error$u20$as$u20$core..fmt..Debug$GT$3fmt17h0717dee4c9b7e811E,@function
_ZN64_$LT$core..str..error..Utf8Error$u20$as$u20$core..fmt..Debug$GT$3fmt17h0717dee4c9b7e811E:
	.cfi_startproc
	pushq	%r15
	.cfi_def_cfa_offset 16
	pushq	%r14
	.cfi_def_cfa_offset 24
	pushq	%rbx
	.cfi_def_cfa_offset 32
	subq	$32, %rsp
	.cfi_def_cfa_offset 64
	.cfi_offset %rbx, -32
	.cfi_offset %r14, -24
	.cfi_offset %r15, -16
	movq	%rsi, %rbx
	movq	%rdi, %r14
	leaq	8(%rdi), %r15
	movq	32(%rsi), %rdi
	movq	40(%rsi), %rax
	leaq	.Lanon.e823fe82331a1e884aacab67e3c3df5b.75(%rip), %rsi
	movl	$9, %edx
	callq	*24(%rax)
	movzbl	%al, %eax
	movq	%rbx, 16(%rsp)
	movq	%rax, 24(%rsp)
	movq	%r14, 8(%rsp)
	leaq	.Lanon.e823fe82331a1e884aacab67e3c3df5b.76(%rip), %rsi
	leaq	.Lanon.e823fe82331a1e884aacab67e3c3df5b.77(%rip), %r8
	leaq	16(%rsp), %rbx
	leaq	8(%rsp), %rcx
	movl	$11, %edx
	movq	%rbx, %rdi
	callq	_ZN4core3fmt8builders11DebugStruct5field17h520e4e95bfe6502eE
	movq	%r15, 8(%rsp)
	leaq	.Lanon.e823fe82331a1e884aacab67e3c3df5b.78(%rip), %rsi
	leaq	.Lanon.e823fe82331a1e884aacab67e3c3df5b.79(%rip), %r8
	leaq	8(%rsp), %rcx
	movl	$9, %edx
	movq	%rbx, %rdi
	callq	_ZN4core3fmt8builders11DebugStruct5field17h520e4e95bfe6502eE
	cmpb	$0, 25(%rsp)
	movb	24(%rsp), %al
	je	.LBB67_7
	testb	%al, %al
	movb	$1, %al
	jne	.LBB67_6
	movq	16(%rsp), %rax
	testb	$4, 48(%rax)
	movq	32(%rax), %rdi
	movq	40(%rax), %rax
	movq	24(%rax), %rax
	jne	.LBB67_4
	leaq	anon.0a2705faa7b3978ea28b48cfb930b6a6.26.llvm.9680267978045891700(%rip), %rsi
	movl	$2, %edx
	jmp	.LBB67_5
.LBB67_4:
	leaq	.Lanon.97a8facaf9f06d724305ce2ee536a3cf.15(%rip), %rsi
	movl	$1, %edx
.LBB67_5:
	callq	*%rax
.LBB67_6:
	movb	%al, 24(%rsp)
.LBB67_7:
	addq	$32, %rsp
	.cfi_def_cfa_offset 32
	popq	%rbx
	.cfi_def_cfa_offset 24
	popq	%r14
	.cfi_def_cfa_offset 16
	popq	%r15
	.cfi_def_cfa_offset 8
	retq
.Lfunc_end67:
	.size	_ZN64_$LT$core..str..error..Utf8Error$u20$as$u20$core..fmt..Debug$GT$3fmt17h0717dee4c9b7e811E, .Lfunc_end67-_ZN64_$LT$core..str..error..Utf8Error$u20$as$u20$core..fmt..Debug$GT$3fmt17h0717dee4c9b7e811E
	.cfi_endproc

	.section	.text._ZN4core6result13unwrap_failed17h9cb4e8dca1981ba0E,"ax",@progbits
	.p2align	4, 0x90
	.type	_ZN4core6result13unwrap_failed17h9cb4e8dca1981ba0E,@function
_ZN4core6result13unwrap_failed17h9cb4e8dca1981ba0E:
	.cfi_startproc
	subq	$120, %rsp
	.cfi_def_cfa_offset 128
	movq	%rdi, 8(%rsp)
	movq	%rsi, 16(%rsp)
	movq	%rdx, 24(%rsp)
	movq	%rcx, 32(%rsp)
	leaq	8(%rsp), %rax
	movq	%rax, 40(%rsp)
	leaq	_ZN44_$LT$$RF$T$u20$as$u20$core..fmt..Display$GT$3fmt17h521adbb50ac846e0E(%rip), %rax
	movq	%rax, 48(%rsp)
	leaq	24(%rsp), %rax
	movq	%rax, 56(%rsp)
	leaq	_ZN42_$LT$$RF$T$u20$as$u20$core..fmt..Debug$GT$3fmt17he80d1ccd192cb975E(%rip), %rax
	movq	%rax, 64(%rsp)
	leaq	.Lanon.e76f679171b87fdfbcbdffbff1761197.78(%rip), %rax
	movq	%rax, 72(%rsp)
	movq	$2, 80(%rsp)
	movq	$0, 88(%rsp)
	leaq	40(%rsp), %rax
	movq	%rax, 104(%rsp)
	movq	$2, 112(%rsp)
	leaq	72(%rsp), %rdi
	movq	%r8, %rsi
	callq	_ZN4core9panicking9panic_fmt17h88d1befd03709389E
	ud2
.Lfunc_end68:
	.size	_ZN4core6result13unwrap_failed17h9cb4e8dca1981ba0E, .Lfunc_end68-_ZN4core6result13unwrap_failed17h9cb4e8dca1981ba0E
	.cfi_endproc

	.section	".text._ZN68_$LT$core..num..error..ParseIntError$u20$as$u20$core..fmt..Debug$GT$3fmt17h99cfa3a5dd73859fE","ax",@progbits
	.p2align	4, 0x90
	.type	_ZN68_$LT$core..num..error..ParseIntError$u20$as$u20$core..fmt..Debug$GT$3fmt17h99cfa3a5dd73859fE,@function
_ZN68_$LT$core..num..error..ParseIntError$u20$as$u20$core..fmt..Debug$GT$3fmt17h99cfa3a5dd73859fE:
	.cfi_startproc
	pushq	%r14
	.cfi_def_cfa_offset 16
	pushq	%rbx
	.cfi_def_cfa_offset 24
	subq	$24, %rsp
	.cfi_def_cfa_offset 48
	.cfi_offset %rbx, -24
	.cfi_offset %r14, -16
	movq	%rsi, %rbx
	movq	%rdi, %r14
	movq	32(%rsi), %rdi
	movq	40(%rsi), %rax
	leaq	.Lanon.baf6717805868dde025c329d6af97ef7.41(%rip), %rsi
	movl	$13, %edx
	callq	*24(%rax)
	movzbl	%al, %eax
	movq	%rbx, (%rsp)
	movq	%rax, 8(%rsp)
	movq	%r14, 16(%rsp)
	leaq	anon.44270d117240652e2c29b279aed00257.38.llvm.3683828415613454216(%rip), %rsi
	leaq	.Lanon.baf6717805868dde025c329d6af97ef7.42(%rip), %r8
	movq	%rsp, %rdi
	leaq	16(%rsp), %rcx
	movl	$4, %edx
	callq	_ZN4core3fmt8builders11DebugStruct5field17h520e4e95bfe6502eE
	cmpb	$0, 9(%rsp)
	movb	8(%rsp), %al
	je	.LBB69_7
	testb	%al, %al
	movb	$1, %al
	jne	.LBB69_6
	movq	(%rsp), %rax
	testb	$4, 48(%rax)
	movq	32(%rax), %rdi
	movq	40(%rax), %rax
	movq	24(%rax), %rax
	jne	.LBB69_4
	leaq	anon.0a2705faa7b3978ea28b48cfb930b6a6.26.llvm.9680267978045891700(%rip), %rsi
	movl	$2, %edx
	jmp	.LBB69_5
.LBB69_4:
	leaq	.Lanon.97a8facaf9f06d724305ce2ee536a3cf.15(%rip), %rsi
	movl	$1, %edx
.LBB69_5:
	callq	*%rax
.LBB69_6:
	movb	%al, 8(%rsp)
.LBB69_7:
	addq	$24, %rsp
	.cfi_def_cfa_offset 24
	popq	%rbx
	.cfi_def_cfa_offset 16
	popq	%r14
	.cfi_def_cfa_offset 8
	retq
.Lfunc_end69:
	.size	_ZN68_$LT$core..num..error..ParseIntError$u20$as$u20$core..fmt..Debug$GT$3fmt17h99cfa3a5dd73859fE, .Lfunc_end69-_ZN68_$LT$core..num..error..ParseIntError$u20$as$u20$core..fmt..Debug$GT$3fmt17h99cfa3a5dd73859fE
	.cfi_endproc

	.section	".text._ZN42_$LT$$RF$T$u20$as$u20$core..fmt..Debug$GT$3fmt17h73f044c15ba0a4e7E","ax",@progbits
	.p2align	4, 0x90
	.type	_ZN42_$LT$$RF$T$u20$as$u20$core..fmt..Debug$GT$3fmt17h73f044c15ba0a4e7E,@function
_ZN42_$LT$$RF$T$u20$as$u20$core..fmt..Debug$GT$3fmt17h73f044c15ba0a4e7E:
	.cfi_startproc
	movq	(%rdi), %rax
	movzbl	(%rax), %eax
	leaq	.LJTI70_0(%rip), %rcx
	movslq	(%rcx,%rax,4), %rax
	addq	%rcx, %rax
	jmpq	*%rax
.LBB70_2:
	movq	32(%rsi), %rdi
	movq	40(%rsi), %rax
	movq	24(%rax), %rax
	leaq	.Lanon.baf6717805868dde025c329d6af97ef7.38(%rip), %rsi
	movl	$5, %edx
	jmpq	*%rax
.LBB70_3:
	movq	32(%rsi), %rdi
	movq	40(%rsi), %rax
	movq	24(%rax), %rax
	leaq	.Lanon.baf6717805868dde025c329d6af97ef7.46(%rip), %rsi
	movl	$12, %edx
	jmpq	*%rax
.LBB70_4:
	movq	32(%rsi), %rdi
	movq	40(%rsi), %rax
	movq	24(%rax), %rax
	leaq	.Lanon.baf6717805868dde025c329d6af97ef7.45(%rip), %rsi
	movl	$11, %edx
	jmpq	*%rax
.LBB70_5:
	movq	32(%rsi), %rdi
	movq	40(%rsi), %rax
	movq	24(%rax), %rax
	leaq	.Lanon.baf6717805868dde025c329d6af97ef7.44(%rip), %rsi
	movl	$11, %edx
	jmpq	*%rax
.LBB70_1:
	movq	32(%rsi), %rdi
	movq	40(%rsi), %rax
	movq	24(%rax), %rax
	leaq	.Lanon.baf6717805868dde025c329d6af97ef7.43(%rip), %rsi
	movl	$4, %edx
	jmpq	*%rax
.Lfunc_end70:
	.size	_ZN42_$LT$$RF$T$u20$as$u20$core..fmt..Debug$GT$3fmt17h73f044c15ba0a4e7E, .Lfunc_end70-_ZN42_$LT$$RF$T$u20$as$u20$core..fmt..Debug$GT$3fmt17h73f044c15ba0a4e7E
	.cfi_endproc
	.section	".rodata._ZN42_$LT$$RF$T$u20$as$u20$core..fmt..Debug$GT$3fmt17h73f044c15ba0a4e7E","a",@progbits
	.p2align	2
.LJTI70_0:
	.long	.LBB70_2-.LJTI70_0
	.long	.LBB70_3-.LJTI70_0
	.long	.LBB70_4-.LJTI70_0
	.long	.LBB70_5-.LJTI70_0
	.long	.LBB70_1-.LJTI70_0

	.section	".text._ZN4core3fmt3num3imp52_$LT$impl$u20$core..fmt..Display$u20$for$u20$i32$GT$3fmt17h9a17b3decb3173ecE","ax",@progbits
	.p2align	4, 0x90
	.type	_ZN4core3fmt3num3imp52_$LT$impl$u20$core..fmt..Display$u20$for$u20$i32$GT$3fmt17h9a17b3decb3173ecE,@function
_ZN4core3fmt3num3imp52_$LT$impl$u20$core..fmt..Display$u20$for$u20$i32$GT$3fmt17h9a17b3decb3173ecE:
	.cfi_startproc
	pushq	%rbx
	.cfi_def_cfa_offset 16
	subq	$48, %rsp
	.cfi_def_cfa_offset 64
	.cfi_offset %rbx, -16
	movq	%rsi, %r10
	movslq	(%rdi), %rsi
	movq	%rsi, %r11
	negq	%r11
	cmovlq	%rsi, %r11
	movl	$39, %eax
	cmpq	$10000, %r11
	jb	.LBB71_1
	movl	$39, %ecx
	movabsq	$3777893186295716171, %r8
	leaq	anon.c6988f58eecb6b8d7c0eb83e83c77e96.5.llvm.2672803169347448000(%rip), %r9
	.p2align	4, 0x90
.LBB71_7:
	movq	%r11, %rax
	mulq	%r8
	shrq	$11, %rdx
	imull	$10000, %edx, %eax
	movl	%r11d, %edi
	subl	%eax, %edi
	movzwl	%di, %eax
	shrl	$2, %eax
	imull	$5243, %eax, %ebx
	shrl	$17, %ebx
	imull	$100, %ebx, %eax
	subl	%eax, %edi
	movzwl	%di, %edi
	leaq	-4(%rcx), %rax
	movzwl	(%r9,%rbx,2), %ebx
	movw	%bx, 5(%rsp,%rcx)
	movzwl	(%r9,%rdi,2), %edi
	movw	%di, 7(%rsp,%rcx)
	movq	%rax, %rcx
	cmpq	$99999999, %r11
	movq	%rdx, %r11
	ja	.LBB71_7
	cmpq	$99, %rdx
	jbe	.LBB71_4
.LBB71_3:
	movzwl	%dx, %ecx
	shrl	$2, %ecx
	imull	$5243, %ecx, %ecx
	shrl	$17, %ecx
	imull	$100, %ecx, %edi
	subl	%edi, %edx
	movzwl	%dx, %edx
	leaq	anon.c6988f58eecb6b8d7c0eb83e83c77e96.5.llvm.2672803169347448000(%rip), %rdi
	movzwl	(%rdi,%rdx,2), %edx
	movw	%dx, 7(%rsp,%rax)
	addq	$-2, %rax
	movq	%rcx, %rdx
.LBB71_4:
	cmpq	$10, %rdx
	jge	.LBB71_5
	addb	$48, %dl
	movb	%dl, 8(%rsp,%rax)
	addq	$-1, %rax
	jmp	.LBB71_9
.LBB71_1:
	movq	%r11, %rdx
	cmpq	$99, %rdx
	ja	.LBB71_3
	jmp	.LBB71_4
.LBB71_5:
	leaq	anon.c6988f58eecb6b8d7c0eb83e83c77e96.5.llvm.2672803169347448000(%rip), %rcx
	movzwl	(%rcx,%rdx,2), %ecx
	movw	%cx, 7(%rsp,%rax)
	addq	$-2, %rax
.LBB71_9:
	leaq	(%rsp,%rax), %r8
	addq	$9, %r8
	movl	$39, %r9d
	subq	%rax, %r9
	notl	%esi
	shrl	$31, %esi
	leaq	.Lanon.44270d117240652e2c29b279aed00257.9(%rip), %rdx
	movq	%r10, %rdi
	xorl	%ecx, %ecx
	callq	_ZN4core3fmt9Formatter12pad_integral17h12e30b8708a6ddceE
	addq	$48, %rsp
	.cfi_def_cfa_offset 16
	popq	%rbx
	.cfi_def_cfa_offset 8
	retq
.Lfunc_end71:
	.size	_ZN4core3fmt3num3imp52_$LT$impl$u20$core..fmt..Display$u20$for$u20$i32$GT$3fmt17h9a17b3decb3173ecE, .Lfunc_end71-_ZN4core3fmt3num3imp52_$LT$impl$u20$core..fmt..Display$u20$for$u20$i32$GT$3fmt17h9a17b3decb3173ecE
	.cfi_endproc

	.section	".text._ZN4core3fmt3num3imp52_$LT$impl$u20$core..fmt..Display$u20$for$u20$u32$GT$3fmt17had092a79464e2a68E","ax",@progbits
	.p2align	4, 0x90
	.type	_ZN4core3fmt3num3imp52_$LT$impl$u20$core..fmt..Display$u20$for$u20$u32$GT$3fmt17had092a79464e2a68E,@function
_ZN4core3fmt3num3imp52_$LT$impl$u20$core..fmt..Display$u20$for$u20$u32$GT$3fmt17had092a79464e2a68E:
	.cfi_startproc
	subq	$40, %rsp
	.cfi_def_cfa_offset 48
	movq	%rsi, %r10
	movl	(%rdi), %r11d
	movl	$39, %ecx
	cmpq	$10000, %r11
	jb	.LBB72_1
	movl	$39, %edi
	movabsq	$3777893186295716171, %r8
	leaq	anon.c6988f58eecb6b8d7c0eb83e83c77e96.5.llvm.2672803169347448000(%rip), %r9
	.p2align	4, 0x90
.LBB72_7:
	movq	%r11, %rax
	mulq	%r8
	shrq	$11, %rdx
	imull	$10000, %edx, %eax
	movl	%r11d, %ecx
	subl	%eax, %ecx
	movzwl	%cx, %eax
	shrl	$2, %eax
	imull	$5243, %eax, %eax
	shrl	$17, %eax
	imull	$100, %eax, %esi
	subl	%esi, %ecx
	movzwl	%cx, %esi
	leaq	-4(%rdi), %rcx
	movzwl	(%r9,%rax,2), %eax
	movw	%ax, -3(%rsp,%rdi)
	movzwl	(%r9,%rsi,2), %eax
	movw	%ax, -1(%rsp,%rdi)
	movq	%rcx, %rdi
	cmpq	$99999999, %r11
	movq	%rdx, %r11
	ja	.LBB72_7
	cmpq	$99, %rdx
	jbe	.LBB72_4
.LBB72_3:
	movzwl	%dx, %eax
	shrl	$2, %eax
	imull	$5243, %eax, %eax
	shrl	$17, %eax
	imull	$100, %eax, %esi
	subl	%esi, %edx
	movzwl	%dx, %edx
	leaq	anon.c6988f58eecb6b8d7c0eb83e83c77e96.5.llvm.2672803169347448000(%rip), %rsi
	movzwl	(%rsi,%rdx,2), %edx
	movw	%dx, -1(%rsp,%rcx)
	addq	$-2, %rcx
	movq	%rax, %rdx
.LBB72_4:
	cmpq	$10, %rdx
	jge	.LBB72_5
	addb	$48, %dl
	movb	%dl, (%rsp,%rcx)
	addq	$-1, %rcx
	jmp	.LBB72_9
.LBB72_1:
	movq	%r11, %rdx
	cmpq	$99, %rdx
	ja	.LBB72_3
	jmp	.LBB72_4
.LBB72_5:
	leaq	anon.c6988f58eecb6b8d7c0eb83e83c77e96.5.llvm.2672803169347448000(%rip), %rax
	movzwl	(%rax,%rdx,2), %eax
	movw	%ax, -1(%rsp,%rcx)
	addq	$-2, %rcx
.LBB72_9:
	leaq	(%rsp,%rcx), %r8
	addq	$1, %r8
	movl	$39, %r9d
	subq	%rcx, %r9
	leaq	.Lanon.44270d117240652e2c29b279aed00257.9(%rip), %rdx
	movq	%r10, %rdi
	movl	$1, %esi
	xorl	%ecx, %ecx
	callq	_ZN4core3fmt9Formatter12pad_integral17h12e30b8708a6ddceE
	addq	$40, %rsp
	.cfi_def_cfa_offset 8
	retq
.Lfunc_end72:
	.size	_ZN4core3fmt3num3imp52_$LT$impl$u20$core..fmt..Display$u20$for$u20$u32$GT$3fmt17had092a79464e2a68E, .Lfunc_end72-_ZN4core3fmt3num3imp52_$LT$impl$u20$core..fmt..Display$u20$for$u20$u32$GT$3fmt17had092a79464e2a68E
	.cfi_endproc

	.section	".text._ZN4core3fmt3num3imp52_$LT$impl$u20$core..fmt..Display$u20$for$u20$u64$GT$3fmt17h4edfa60b6cc4e39cE","ax",@progbits
	.p2align	4, 0x90
	.type	_ZN4core3fmt3num3imp52_$LT$impl$u20$core..fmt..Display$u20$for$u20$u64$GT$3fmt17h4edfa60b6cc4e39cE,@function
_ZN4core3fmt3num3imp52_$LT$impl$u20$core..fmt..Display$u20$for$u20$u64$GT$3fmt17h4edfa60b6cc4e39cE:
	.cfi_startproc
	subq	$40, %rsp
	.cfi_def_cfa_offset 48
	movq	%rsi, %r10
	movq	(%rdi), %r11
	movl	$39, %ecx
	cmpq	$10000, %r11
	jb	.LBB73_1
	movl	$39, %edi
	movabsq	$3777893186295716171, %r8
	leaq	anon.c6988f58eecb6b8d7c0eb83e83c77e96.5.llvm.2672803169347448000(%rip), %r9
	.p2align	4, 0x90
.LBB73_7:
	movq	%r11, %rax
	mulq	%r8
	shrq	$11, %rdx
	imull	$10000, %edx, %eax
	movl	%r11d, %ecx
	subl	%eax, %ecx
	movzwl	%cx, %eax
	shrl	$2, %eax
	imull	$5243, %eax, %eax
	shrl	$17, %eax
	imull	$100, %eax, %esi
	subl	%esi, %ecx
	movzwl	%cx, %esi
	leaq	-4(%rdi), %rcx
	movzwl	(%r9,%rax,2), %eax
	movw	%ax, -3(%rsp,%rdi)
	movzwl	(%r9,%rsi,2), %eax
	movw	%ax, -1(%rsp,%rdi)
	movq	%rcx, %rdi
	cmpq	$99999999, %r11
	movq	%rdx, %r11
	ja	.LBB73_7
	cmpq	$99, %rdx
	jle	.LBB73_4
.LBB73_3:
	movzwl	%dx, %eax
	shrl	$2, %eax
	imull	$5243, %eax, %eax
	shrl	$17, %eax
	imull	$100, %eax, %esi
	subl	%esi, %edx
	movzwl	%dx, %edx
	leaq	anon.c6988f58eecb6b8d7c0eb83e83c77e96.5.llvm.2672803169347448000(%rip), %rsi
	movzwl	(%rsi,%rdx,2), %edx
	movw	%dx, -1(%rsp,%rcx)
	addq	$-2, %rcx
	movq	%rax, %rdx
.LBB73_4:
	cmpq	$10, %rdx
	jge	.LBB73_5
	addb	$48, %dl
	movb	%dl, (%rsp,%rcx)
	addq	$-1, %rcx
	jmp	.LBB73_9
.LBB73_1:
	movq	%r11, %rdx
	cmpq	$99, %rdx
	jg	.LBB73_3
	jmp	.LBB73_4
.LBB73_5:
	leaq	anon.c6988f58eecb6b8d7c0eb83e83c77e96.5.llvm.2672803169347448000(%rip), %rax
	movzwl	(%rax,%rdx,2), %eax
	movw	%ax, -1(%rsp,%rcx)
	addq	$-2, %rcx
.LBB73_9:
	leaq	(%rsp,%rcx), %r8
	addq	$1, %r8
	movl	$39, %r9d
	subq	%rcx, %r9
	leaq	.Lanon.44270d117240652e2c29b279aed00257.9(%rip), %rdx
	movq	%r10, %rdi
	movl	$1, %esi
	xorl	%ecx, %ecx
	callq	_ZN4core3fmt9Formatter12pad_integral17h12e30b8708a6ddceE
	addq	$40, %rsp
	.cfi_def_cfa_offset 8
	retq
.Lfunc_end73:
	.size	_ZN4core3fmt3num3imp52_$LT$impl$u20$core..fmt..Display$u20$for$u20$u64$GT$3fmt17h4edfa60b6cc4e39cE, .Lfunc_end73-_ZN4core3fmt3num3imp52_$LT$impl$u20$core..fmt..Display$u20$for$u20$u64$GT$3fmt17h4edfa60b6cc4e39cE
	.cfi_endproc

	.section	.text._ZN4core7unicode12unicode_data15grapheme_extend6lookup17h5a4379fe326054a9E,"ax",@progbits
	.p2align	4, 0x90
	.type	_ZN4core7unicode12unicode_data15grapheme_extend6lookup17h5a4379fe326054a9E,@function
_ZN4core7unicode12unicode_data15grapheme_extend6lookup17h5a4379fe326054a9E:
	.cfi_startproc
	pushq	%rax
	.cfi_def_cfa_offset 16
	movl	%edi, %ecx
	shll	$11, %ecx
	xorl	%eax, %eax
	cmpl	$68900, %edi
	movl	$15, %edx
	cmovbq	%rax, %rdx
	leaq	8(%rdx), %rax
	leaq	_ZN4core7unicode12unicode_data15grapheme_extend17SHORT_OFFSET_RUNS17hef70c56e3db8ce27E(%rip), %r8
	movl	32(%r8,%rdx,4), %esi
	shll	$11, %esi
	cmpl	%ecx, %esi
	cmovaq	%rdx, %rax
	leaq	4(%rax), %rdx
	movl	16(%r8,%rax,4), %esi
	shll	$11, %esi
	cmpl	%ecx, %esi
	cmovaq	%rax, %rdx
	leaq	2(%rdx), %rax
	movl	8(%r8,%rdx,4), %esi
	shll	$11, %esi
	cmpl	%ecx, %esi
	cmovaq	%rdx, %rax
	leaq	1(%rax), %rdx
	movl	4(%r8,%rax,4), %esi
	shll	$11, %esi
	cmpl	%ecx, %esi
	cmovaq	%rax, %rdx
	movl	(%r8,%rdx,4), %esi
	shll	$11, %esi
	xorl	%eax, %eax
	cmpl	%ecx, %esi
	sete	%al
	adcq	$0, %rax
	addq	%rdx, %rax
	cmpq	$30, %rax
	ja	.LBB74_15
	movl	$689, %r9d
	cmpq	$30, %rax
	je	.LBB74_3
	movl	4(%r8,%rax,4), %r9d
	shrq	$21, %r9
.LBB74_3:
	xorl	%edx, %edx
	movq	%rax, %rcx
	subq	$1, %rcx
	jb	.LBB74_8
	cmpq	$31, %rcx
	jae	.LBB74_5
	movl	$2097151, %edx
	andl	(%r8,%rcx,4), %edx
.LBB74_8:
	movl	(%r8,%rax,4), %eax
	shrq	$21, %rax
	movq	%rax, %rcx
	notq	%rcx
	addq	%r9, %rcx
	je	.LBB74_14
	subl	%edx, %edi
	cmpq	$689, %rax
	movl	$689, %ecx
	cmovaq	%rax, %rcx
	addq	$-1, %r9
	xorl	%edx, %edx
	leaq	_ZN4core7unicode12unicode_data15grapheme_extend7OFFSETS17h120211b4c7b1a326E(%rip), %r8
	.p2align	4, 0x90
.LBB74_10:
	cmpq	%rax, %rcx
	je	.LBB74_16
	movzbl	(%rax,%r8), %esi
	addl	%esi, %edx
	cmpl	%edi, %edx
	ja	.LBB74_14
	addq	$1, %rax
	cmpq	%rax, %r9
	jne	.LBB74_10
	movq	%r9, %rax
.LBB74_14:
	andb	$1, %al
	popq	%rcx
	.cfi_def_cfa_offset 8
	retq
.LBB74_16:
	.cfi_def_cfa_offset 16
	leaq	.Lanon.baf6717805868dde025c329d6af97ef7.27(%rip), %rdx
	movl	$689, %esi
	movq	%rcx, %rdi
	callq	_ZN4core9panicking18panic_bounds_check17h5de496fbf8268208E
	ud2
.LBB74_15:
	leaq	.Lanon.baf6717805868dde025c329d6af97ef7.26(%rip), %rdx
	movl	$31, %esi
	movq	%rax, %rdi
	callq	_ZN4core9panicking18panic_bounds_check17h5de496fbf8268208E
	ud2
.LBB74_5:
	leaq	.Lanon.baf6717805868dde025c329d6af97ef7.28(%rip), %rdx
	movl	$31, %esi
	movq	%rcx, %rdi
	callq	_ZN4core9panicking18panic_bounds_check17h5de496fbf8268208E
	ud2
.Lfunc_end74:
	.size	_ZN4core7unicode12unicode_data15grapheme_extend6lookup17h5a4379fe326054a9E, .Lfunc_end74-_ZN4core7unicode12unicode_data15grapheme_extend6lookup17h5a4379fe326054a9E
	.cfi_endproc

	.section	.text._ZN4core7unicode12unicode_data11white_space6lookup17hd5324a2ca9642263E,"ax",@progbits
	.p2align	4, 0x90
	.type	_ZN4core7unicode12unicode_data11white_space6lookup17hd5324a2ca9642263E,@function
_ZN4core7unicode12unicode_data11white_space6lookup17hd5324a2ca9642263E:
	.cfi_startproc
	pushq	%rax
	.cfi_def_cfa_offset 16
	xorl	%eax, %eax
	cmpl	$12287, %edi
	seta	%al
	movl	%edi, %ecx
	shll	$11, %ecx
	leaq	(%rax,%rax), %rdx
	leaq	(%rax,%rax), %rsi
	addq	$1, %rsi
	leaq	_ZN4core7unicode12unicode_data11white_space17SHORT_OFFSET_RUNS17h96681ed1e859fdb4E(%rip), %r8
	movl	4(%r8,%rdx,4), %eax
	shll	$11, %eax
	cmpl	%ecx, %eax
	cmovaq	%rdx, %rsi
	movl	(%r8,%rsi,4), %edx
	shll	$11, %edx
	xorl	%eax, %eax
	cmpl	%ecx, %edx
	sete	%al
	adcq	$0, %rsi
	addq	%rsi, %rax
	cmpq	$3, %rax
	ja	.LBB75_15
	movl	$21, %r9d
	cmpq	$3, %rax
	je	.LBB75_3
	movl	4(%r8,%rax,4), %r9d
	shrq	$21, %r9
.LBB75_3:
	xorl	%esi, %esi
	movq	%rax, %rcx
	subq	$1, %rcx
	jb	.LBB75_8
	cmpq	$4, %rcx
	jae	.LBB75_5
	movl	$2097151, %esi
	andl	(%r8,%rcx,4), %esi
.LBB75_8:
	movl	(%r8,%rax,4), %eax
	shrq	$21, %rax
	movq	%rax, %rcx
	notq	%rcx
	addq	%r9, %rcx
	je	.LBB75_14
	subl	%esi, %edi
	cmpq	$21, %rax
	movl	$21, %ecx
	cmovaq	%rax, %rcx
	addq	$-1, %r9
	xorl	%esi, %esi
	leaq	_ZN4core7unicode12unicode_data11white_space7OFFSETS17h9f4fabcf0d6833d3E(%rip), %r8
	.p2align	4, 0x90
.LBB75_10:
	cmpq	%rax, %rcx
	je	.LBB75_16
	movzbl	(%rax,%r8), %edx
	addl	%edx, %esi
	cmpl	%edi, %esi
	ja	.LBB75_14
	addq	$1, %rax
	cmpq	%rax, %r9
	jne	.LBB75_10
	movq	%r9, %rax
.LBB75_14:
	andb	$1, %al
	popq	%rcx
	.cfi_def_cfa_offset 8
	retq
.LBB75_16:
	.cfi_def_cfa_offset 16
	leaq	.Lanon.baf6717805868dde025c329d6af97ef7.27(%rip), %rdx
	movl	$21, %esi
	movq	%rcx, %rdi
	callq	_ZN4core9panicking18panic_bounds_check17h5de496fbf8268208E
	ud2
.LBB75_15:
	leaq	.Lanon.baf6717805868dde025c329d6af97ef7.26(%rip), %rdx
	movl	$4, %esi
	movq	%rax, %rdi
	callq	_ZN4core9panicking18panic_bounds_check17h5de496fbf8268208E
	ud2
.LBB75_5:
	leaq	.Lanon.baf6717805868dde025c329d6af97ef7.28(%rip), %rdx
	movl	$4, %esi
	movq	%rcx, %rdi
	callq	_ZN4core9panicking18panic_bounds_check17h5de496fbf8268208E
	ud2
.Lfunc_end75:
	.size	_ZN4core7unicode12unicode_data11white_space6lookup17hd5324a2ca9642263E, .Lfunc_end75-_ZN4core7unicode12unicode_data11white_space6lookup17hd5324a2ca9642263E
	.cfi_endproc

	.section	.rodata.cst16,"aM",@progbits,16
	.p2align	4
.LCPI76_0:
	.byte	63
	.byte	63
	.zero	1
	.zero	1
	.zero	1
	.zero	1
	.zero	1
	.zero	1
	.zero	1
	.zero	1
	.zero	1
	.zero	1
	.zero	1
	.zero	1
	.zero	1
	.zero	1
.LCPI76_1:
	.quad	1
	.quad	1
	.section	.text._ZN4core3str7pattern11StrSearcher3new17h173f4a4d0136fbb8E,"ax",@progbits
	.p2align	4, 0x90
	.type	_ZN4core3str7pattern11StrSearcher3new17h173f4a4d0136fbb8E,@function
_ZN4core3str7pattern11StrSearcher3new17h173f4a4d0136fbb8E:
	.cfi_startproc
	pushq	%rbp
	.cfi_def_cfa_offset 16
	pushq	%r15
	.cfi_def_cfa_offset 24
	pushq	%r14
	.cfi_def_cfa_offset 32
	pushq	%r13
	.cfi_def_cfa_offset 40
	pushq	%r12
	.cfi_def_cfa_offset 48
	pushq	%rbx
	.cfi_def_cfa_offset 56
	subq	$24, %rsp
	.cfi_def_cfa_offset 80
	.cfi_offset %rbx, -56
	.cfi_offset %r12, -48
	.cfi_offset %r13, -40
	.cfi_offset %r14, -32
	.cfi_offset %r15, -24
	.cfi_offset %rbp, -16
	movq	%rcx, %r12
	movq	%rdx, %r10
	movq	%rsi, 16(%rsp)
	movq	%rdi, %r9
	testq	%r8, %r8
	je	.LBB76_79
	movq	%r8, %r13
	cmpq	$1, %r8
	jne	.LBB76_3
	movl	$1, %r15d
	xorl	%eax, %eax
	movl	$1, %ecx
	xorl	%r14d, %r14d
.LBB76_20:
	cmpq	%r14, %rax
	cmovbeq	%rcx, %r15
	cmovaq	%rax, %r14
	cmpq	%r13, %r14
	ja	.LBB76_21
	movq	%r15, %rsi
	addq	%r14, %rsi
	jb	.LBB76_82
	movq	%r9, 8(%rsp)
	cmpq	%r13, %rsi
	ja	.LBB76_25
	leaq	(%r12,%r15), %rsi
	testq	%r15, %r15
	je	.LBB76_27
	movq	%r12, %rdi
	movq	%r14, %rdx
	movq	%r10, %rbx
	movq	%rsi, %rbp
	callq	*bcmp@GOTPCREL(%rip)
	movq	%rbp, %rsi
	movq	%rbx, %r10
	testl	%eax, %eax
	je	.LBB76_27
	movq	%r13, %rax
	andq	$-4, %rax
	leaq	-4(%rax), %rcx
	movq	%rcx, %rdx
	shrq	$2, %rdx
	addq	$1, %rdx
	testq	%rcx, %rcx
	je	.LBB76_36
	movq	%rdx, %rsi
	andq	$-2, %rsi
	leaq	(,%rsi,4), %rcx
	pxor	%xmm2, %xmm2
	xorl	%edi, %edi
	movdqa	.LCPI76_0(%rip), %xmm8
	movdqa	.LCPI76_1(%rip), %xmm4
	xorpd	%xmm0, %xmm0
	xorpd	%xmm1, %xmm1
	movq	8(%rsp), %rbx
	.p2align	4, 0x90
.LBB76_38:
	movzwl	(%r12,%rdi,4), %ebp
	movd	%ebp, %xmm5
	movzwl	2(%r12,%rdi,4), %ebp
	movd	%ebp, %xmm6
	pand	%xmm8, %xmm5
	pand	%xmm8, %xmm6
	punpcklbw	%xmm2, %xmm5
	punpcklwd	%xmm2, %xmm5
	punpckldq	%xmm2, %xmm5
	punpcklbw	%xmm2, %xmm6
	punpcklwd	%xmm2, %xmm6
	punpckldq	%xmm2, %xmm6
	movdqa	%xmm4, %xmm7
	psllq	%xmm5, %xmm7
	pshufd	$78, %xmm5, %xmm3
	movdqa	%xmm4, %xmm5
	psllq	%xmm3, %xmm5
	movsd	%xmm7, %xmm5
	orpd	%xmm0, %xmm5
	movdqa	%xmm4, %xmm0
	psllq	%xmm6, %xmm0
	pshufd	$78, %xmm6, %xmm3
	movdqa	%xmm4, %xmm6
	psllq	%xmm3, %xmm6
	movsd	%xmm0, %xmm6
	orpd	%xmm1, %xmm6
	movzwl	4(%r12,%rdi,4), %ebp
	movd	%ebp, %xmm0
	movzwl	6(%r12,%rdi,4), %ebp
	movd	%ebp, %xmm1
	pand	%xmm8, %xmm0
	pand	%xmm8, %xmm1
	punpcklbw	%xmm2, %xmm0
	punpcklwd	%xmm2, %xmm0
	punpckldq	%xmm2, %xmm0
	punpcklbw	%xmm2, %xmm1
	movdqa	%xmm4, %xmm3
	psllq	%xmm0, %xmm3
	punpcklwd	%xmm2, %xmm1
	pshufd	$78, %xmm0, %xmm7
	movdqa	%xmm4, %xmm0
	psllq	%xmm7, %xmm0
	punpckldq	%xmm2, %xmm1
	movsd	%xmm3, %xmm0
	movdqa	%xmm4, %xmm3
	psllq	%xmm1, %xmm3
	orpd	%xmm5, %xmm0
	pshufd	$78, %xmm1, %xmm5
	movdqa	%xmm4, %xmm1
	psllq	%xmm5, %xmm1
	movsd	%xmm3, %xmm1
	orpd	%xmm6, %xmm1
	addq	$2, %rdi
	cmpq	%rdi, %rsi
	jne	.LBB76_38
	testb	$1, %dl
	je	.LBB76_41
.LBB76_40:
	movzwl	2(%r12,%rcx), %edx
	movd	%edx, %xmm2
	movdqa	.LCPI76_0(%rip), %xmm3
	pand	%xmm3, %xmm2
	pxor	%xmm4, %xmm4
	punpcklbw	%xmm4, %xmm2
	punpcklwd	%xmm4, %xmm2
	punpckldq	%xmm4, %xmm2
	movdqa	.LCPI76_1(%rip), %xmm5
	movdqa	%xmm5, %xmm6
	psllq	%xmm2, %xmm6
	pshufd	$78, %xmm2, %xmm2
	movdqa	%xmm5, %xmm7
	psllq	%xmm2, %xmm7
	movsd	%xmm6, %xmm7
	orpd	%xmm7, %xmm1
	movzwl	(%r12,%rcx), %ecx
	movd	%ecx, %xmm2
	pand	%xmm3, %xmm2
	punpcklbw	%xmm4, %xmm2
	punpcklwd	%xmm4, %xmm2
	punpckldq	%xmm4, %xmm2
	movdqa	%xmm5, %xmm3
	psllq	%xmm2, %xmm3
	pshufd	$78, %xmm2, %xmm2
	psllq	%xmm2, %xmm5
	movsd	%xmm3, %xmm5
	orpd	%xmm5, %xmm0
.LBB76_41:
	orpd	%xmm1, %xmm0
	movq	%r13, %r15
	subq	%r14, %r15
	pshufd	$78, %xmm0, %xmm1
	por	%xmm0, %xmm1
	movq	%xmm1, %rdx
	cmpq	%r13, %rax
	je	.LBB76_43
	.p2align	4, 0x90
.LBB76_42:
	movzbl	(%r12,%rax), %ecx
	btsq	%rcx, %rdx
	addq	$1, %rax
	cmpq	%rax, %r13
	jne	.LBB76_42
.LBB76_43:
	cmpq	%r15, %r14
	cmovaq	%r14, %r15
	addq	$1, %r15
	movq	$-1, %rsi
	movq	$-1, %rcx
	movq	%r14, %r9
	jmp	.LBB76_78
.LBB76_27:
	movq	%rsi, %r11
	movl	$1, %ebp
	xorl	%r8d, %r8d
	xorl	%edx, %edx
	movl	$1, %ecx
	xorl	%r9d, %r9d
	jmp	.LBB76_28
	.p2align	4, 0x90
.LBB76_44:
	leaq	(%rdx,%rcx), %rsi
	addq	$1, %rsi
	movq	%rsi, %rbp
	subq	%r9, %rbp
	xorl	%edx, %edx
.LBB76_46:
	movq	%r9, %rcx
	movq	%rcx, %r9
	movq	%rsi, %rcx
	cmpq	%r15, %rbp
	je	.LBB76_48
.LBB76_28:
	leaq	(%rcx,%rdx), %rax
	cmpq	%r13, %rax
	jae	.LBB76_48
	movq	%rcx, %rax
	notq	%rax
	movq	%r13, %rdi
	subq	%rdx, %rdi
	addq	%rax, %rdi
	cmpq	%r13, %rdi
	jae	.LBB76_61
	movq	%rdx, %rax
	notq	%rax
	addq	%r13, %rax
	subq	%r9, %rax
	cmpq	%r13, %rax
	jae	.LBB76_62
	leaq	1(%rcx), %rsi
	movzbl	(%r12,%rax), %eax
	cmpb	%al, (%r12,%rdi)
	jb	.LBB76_44
	jne	.LBB76_33
	addq	$1, %rdx
	cmpq	%rbp, %rdx
	movq	%rdx, %rax
	cmoveq	%r8, %rax
	cmovneq	%r8, %rdx
	movq	%rdx, %rsi
	addq	%rcx, %rsi
	movq	%rax, %rdx
	jmp	.LBB76_46
	.p2align	4, 0x90
.LBB76_33:
	movl	$1, %ebp
	xorl	%edx, %edx
	movq	%rcx, %r9
	movq	%rsi, %rcx
	cmpq	%r15, %rbp
	jne	.LBB76_28
.LBB76_48:
	movl	$1, %ebx
	xorl	%r8d, %r8d
	xorl	%ebp, %ebp
	movl	$1, %ecx
	xorl	%edx, %edx
	jmp	.LBB76_49
	.p2align	4, 0x90
.LBB76_55:
	leaq	(%rcx,%rbp), %rsi
	addq	$1, %rsi
	movq	%rsi, %rbx
	subq	%rdx, %rbx
	xorl	%ebp, %ebp
.LBB76_57:
	movq	%rdx, %rcx
	movq	%rcx, %rdx
	movq	%rsi, %rcx
	cmpq	%r15, %rbx
	je	.LBB76_59
.LBB76_49:
	leaq	(%rcx,%rbp), %rax
	cmpq	%r13, %rax
	jae	.LBB76_59
	movq	%rcx, %rax
	notq	%rax
	movq	%r13, %rdi
	subq	%rbp, %rdi
	addq	%rax, %rdi
	cmpq	%r13, %rdi
	jae	.LBB76_61
	movq	%rbp, %rax
	notq	%rax
	addq	%r13, %rax
	subq	%rdx, %rax
	cmpq	%r13, %rax
	jae	.LBB76_62
	leaq	1(%rcx), %rsi
	movzbl	(%r12,%rax), %eax
	cmpb	%al, (%r12,%rdi)
	ja	.LBB76_55
	jne	.LBB76_54
	addq	$1, %rbp
	cmpq	%rbx, %rbp
	movq	%rbp, %rax
	cmoveq	%r8, %rax
	cmovneq	%r8, %rbp
	movq	%rbp, %rsi
	addq	%rcx, %rsi
	movq	%rax, %rbp
	jmp	.LBB76_57
	.p2align	4, 0x90
.LBB76_54:
	movl	$1, %ebx
	xorl	%ebp, %ebp
	movq	%rcx, %rdx
	movq	%rsi, %rcx
	cmpq	%r15, %rbx
	jne	.LBB76_49
.LBB76_59:
	cmpq	%rdx, %r9
	cmovaq	%r9, %rdx
	cmpq	%r13, %r15
	ja	.LBB76_60
	movq	%r13, %r9
	subq	%rdx, %r9
	testq	%r15, %r15
	movq	8(%rsp), %rbx
	je	.LBB76_64
	cmpq	$4, %r15
	jae	.LBB76_67
	xorl	%edx, %edx
	movq	%r12, %rcx
	jmp	.LBB76_75
.LBB76_79:
	movq	16(%rsp), %rax
	movq	%rax, (%r9)
	movq	%r10, 8(%r9)
	movq	%r12, 16(%r9)
	xorpd	%xmm0, %xmm0
	movupd	%xmm0, 24(%r9)
	movq	$0, 40(%r9)
	movq	%r10, 48(%r9)
	movw	$257, 56(%r9)
	jmp	.LBB76_80
.LBB76_3:
	movl	$1, %ebp
	xorl	%ecx, %ecx
	xorl	%eax, %eax
	movl	$1, %esi
	xorl	%edx, %edx
	movl	$1, %r15d
	jmp	.LBB76_4
	.p2align	4, 0x90
.LBB76_81:
	leaq	(%rsi,%rdx), %rdi
	addq	$1, %rdi
	movq	%rdi, %r15
	subq	%rax, %r15
	xorl	%edx, %edx
.LBB76_9:
	leaq	(%rdi,%rdx), %rbp
	movq	%rdi, %rsi
	cmpq	%r13, %rbp
	jae	.LBB76_10
.LBB76_4:
	leaq	(%rdx,%rax), %rdi
	cmpq	%r13, %rdi
	jae	.LBB76_15
	movzbl	(%r12,%rdi), %ebx
	cmpb	%bl, (%r12,%rbp)
	jb	.LBB76_81
	jne	.LBB76_7
	addq	$1, %rdx
	cmpq	%r15, %rdx
	movq	%rdx, %rbp
	cmoveq	%rcx, %rbp
	cmovneq	%rcx, %rdx
	movq	%rdx, %rdi
	addq	%rsi, %rdi
	movq	%rbp, %rdx
	jmp	.LBB76_9
	.p2align	4, 0x90
.LBB76_7:
	leaq	1(%rsi), %rdi
	movl	$1, %r15d
	xorl	%edx, %edx
	movq	%rsi, %rax
	jmp	.LBB76_9
.LBB76_10:
	movl	$1, %ebx
	xorl	%r8d, %r8d
	xorl	%r14d, %r14d
	movl	$1, %ebp
	xorl	%esi, %esi
	movl	$1, %ecx
	jmp	.LBB76_11
	.p2align	4, 0x90
.LBB76_17:
	leaq	(%rsi,%rbp), %rdi
	addq	$1, %rdi
	movq	%rdi, %rcx
	subq	%r14, %rcx
	xorl	%esi, %esi
.LBB76_19:
	leaq	(%rdi,%rsi), %rbx
	movq	%rdi, %rbp
	cmpq	%r13, %rbx
	jae	.LBB76_20
.LBB76_11:
	leaq	(%rsi,%r14), %rdi
	cmpq	%r13, %rdi
	jae	.LBB76_15
	movzbl	(%r12,%rdi), %edx
	cmpb	%dl, (%r12,%rbx)
	ja	.LBB76_17
	jne	.LBB76_14
	addq	$1, %rsi
	cmpq	%rcx, %rsi
	movq	%rsi, %rdx
	cmoveq	%r8, %rdx
	cmovneq	%r8, %rsi
	movq	%rsi, %rdi
	addq	%rbp, %rdi
	movq	%rdx, %rsi
	jmp	.LBB76_19
	.p2align	4, 0x90
.LBB76_14:
	leaq	1(%rbp), %rdi
	movl	$1, %ecx
	xorl	%esi, %esi
	movq	%rbp, %r14
	jmp	.LBB76_19
.LBB76_64:
	xorl	%esi, %esi
	movq	%r13, %rcx
	xorl	%edx, %edx
	xorl	%r15d, %r15d
	jmp	.LBB76_78
.LBB76_67:
	movq	%r15, %rcx
	andq	$-4, %rcx
	leaq	-4(%rcx), %rdx
	movq	%rdx, %rsi
	shrq	$2, %rsi
	addq	$1, %rsi
	testq	%rdx, %rdx
	je	.LBB76_68
	movq	%rsi, %rdi
	andq	$-2, %rdi
	leaq	(,%rdi,4), %r8
	pxor	%xmm2, %xmm2
	xorl	%edx, %edx
	movdqa	.LCPI76_0(%rip), %xmm8
	movdqa	.LCPI76_1(%rip), %xmm4
	xorpd	%xmm0, %xmm0
	xorpd	%xmm1, %xmm1
	.p2align	4, 0x90
.LBB76_70:
	movzwl	(%r12,%rdx,4), %ebp
	movd	%ebp, %xmm5
	movzwl	2(%r12,%rdx,4), %ebp
	movd	%ebp, %xmm6
	pand	%xmm8, %xmm5
	pand	%xmm8, %xmm6
	punpcklbw	%xmm2, %xmm5
	punpcklwd	%xmm2, %xmm5
	punpckldq	%xmm2, %xmm5
	punpcklbw	%xmm2, %xmm6
	punpcklwd	%xmm2, %xmm6
	punpckldq	%xmm2, %xmm6
	movdqa	%xmm4, %xmm7
	psllq	%xmm5, %xmm7
	pshufd	$78, %xmm5, %xmm3
	movdqa	%xmm4, %xmm5
	psllq	%xmm3, %xmm5
	movsd	%xmm7, %xmm5
	orpd	%xmm0, %xmm5
	movdqa	%xmm4, %xmm0
	psllq	%xmm6, %xmm0
	pshufd	$78, %xmm6, %xmm3
	movdqa	%xmm4, %xmm6
	psllq	%xmm3, %xmm6
	movsd	%xmm0, %xmm6
	orpd	%xmm1, %xmm6
	movzwl	4(%r12,%rdx,4), %ebp
	movd	%ebp, %xmm0
	movzwl	6(%r12,%rdx,4), %ebp
	movd	%ebp, %xmm1
	pand	%xmm8, %xmm0
	pand	%xmm8, %xmm1
	punpcklbw	%xmm2, %xmm0
	punpcklwd	%xmm2, %xmm0
	punpckldq	%xmm2, %xmm0
	punpcklbw	%xmm2, %xmm1
	movdqa	%xmm4, %xmm3
	psllq	%xmm0, %xmm3
	punpcklwd	%xmm2, %xmm1
	pshufd	$78, %xmm0, %xmm7
	movdqa	%xmm4, %xmm0
	psllq	%xmm7, %xmm0
	punpckldq	%xmm2, %xmm1
	movsd	%xmm3, %xmm0
	movdqa	%xmm4, %xmm3
	psllq	%xmm1, %xmm3
	orpd	%xmm5, %xmm0
	pshufd	$78, %xmm1, %xmm5
	movdqa	%xmm4, %xmm1
	psllq	%xmm5, %xmm1
	movsd	%xmm3, %xmm1
	orpd	%xmm6, %xmm1
	addq	$2, %rdx
	cmpq	%rdx, %rdi
	jne	.LBB76_70
	testb	$1, %sil
	je	.LBB76_73
.LBB76_72:
	movzwl	2(%r12,%r8), %edx
	movd	%edx, %xmm2
	movdqa	.LCPI76_0(%rip), %xmm3
	pand	%xmm3, %xmm2
	pxor	%xmm4, %xmm4
	punpcklbw	%xmm4, %xmm2
	punpcklwd	%xmm4, %xmm2
	punpckldq	%xmm4, %xmm2
	movdqa	.LCPI76_1(%rip), %xmm5
	movdqa	%xmm5, %xmm6
	psllq	%xmm2, %xmm6
	pshufd	$78, %xmm2, %xmm2
	movdqa	%xmm5, %xmm7
	psllq	%xmm2, %xmm7
	movsd	%xmm6, %xmm7
	orpd	%xmm7, %xmm1
	movzwl	(%r12,%r8), %edx
	movd	%edx, %xmm2
	pand	%xmm3, %xmm2
	punpcklbw	%xmm4, %xmm2
	punpcklwd	%xmm4, %xmm2
	punpckldq	%xmm4, %xmm2
	movdqa	%xmm5, %xmm3
	psllq	%xmm2, %xmm3
	pshufd	$78, %xmm2, %xmm2
	psllq	%xmm2, %xmm5
	movsd	%xmm3, %xmm5
	orpd	%xmm5, %xmm0
.LBB76_73:
	orpd	%xmm1, %xmm0
	pshufd	$78, %xmm0, %xmm1
	por	%xmm0, %xmm1
	movq	%xmm1, %rdx
	cmpq	%rcx, %r15
	jne	.LBB76_74
	xorl	%esi, %esi
	jmp	.LBB76_77
.LBB76_36:
	xorpd	%xmm0, %xmm0
	xorl	%ecx, %ecx
	xorpd	%xmm1, %xmm1
	movq	8(%rsp), %rbx
	testb	$1, %dl
	jne	.LBB76_40
	jmp	.LBB76_41
.LBB76_74:
	addq	%r12, %rcx
.LBB76_75:
	xorl	%esi, %esi
	.p2align	4, 0x90
.LBB76_76:
	movzbl	(%rcx), %edi
	addq	$1, %rcx
	btsq	%rdi, %rdx
	cmpq	%rcx, %r11
	jne	.LBB76_76
.LBB76_77:
	movq	%r13, %rcx
.LBB76_78:
	movq	16(%rsp), %rax
	movq	%rax, (%rbx)
	movq	%r10, 8(%rbx)
	movq	%r12, 16(%rbx)
	movq	%r13, 24(%rbx)
	movq	$1, 32(%rbx)
	movq	%r14, 40(%rbx)
	movq	%r9, 48(%rbx)
	movq	%r15, 56(%rbx)
	movq	%rdx, 64(%rbx)
	movq	$0, 72(%rbx)
	movq	%r10, 80(%rbx)
	movq	%rsi, 88(%rbx)
	movq	%rcx, 96(%rbx)
.LBB76_80:
	addq	$24, %rsp
	.cfi_def_cfa_offset 56
	popq	%rbx
	.cfi_def_cfa_offset 48
	popq	%r12
	.cfi_def_cfa_offset 40
	popq	%r13
	.cfi_def_cfa_offset 32
	popq	%r14
	.cfi_def_cfa_offset 24
	popq	%r15
	.cfi_def_cfa_offset 16
	popq	%rbp
	.cfi_def_cfa_offset 8
	retq
.LBB76_68:
	.cfi_def_cfa_offset 80
	xorpd	%xmm0, %xmm0
	xorl	%r8d, %r8d
	xorpd	%xmm1, %xmm1
	testb	$1, %sil
	jne	.LBB76_72
	jmp	.LBB76_73
.LBB76_15:
	leaq	.Lanon.cc33f088844213285801c3a94d9c0c3c.36(%rip), %rdx
	jmp	.LBB76_16
.LBB76_61:
	leaq	.Lanon.cc33f088844213285801c3a94d9c0c3c.37(%rip), %rdx
	jmp	.LBB76_16
.LBB76_62:
	leaq	.Lanon.cc33f088844213285801c3a94d9c0c3c.38(%rip), %rdx
	movq	%rax, %rdi
.LBB76_16:
	movq	%r13, %rsi
	callq	_ZN4core9panicking18panic_bounds_check17h5de496fbf8268208E
	ud2
.LBB76_21:
	leaq	.Lanon.cc33f088844213285801c3a94d9c0c3c.33(%rip), %rdx
	movq	%r14, %rdi
	jmp	.LBB76_22
.LBB76_82:
	leaq	.Lanon.cc33f088844213285801c3a94d9c0c3c.34(%rip), %rdx
	movq	%r15, %rdi
	callq	_ZN4core5slice5index22slice_index_order_fail17h984581c4ca8e835eE
	ud2
.LBB76_25:
	leaq	.Lanon.cc33f088844213285801c3a94d9c0c3c.34(%rip), %rdx
	movq	%rsi, %rdi
	jmp	.LBB76_22
.LBB76_60:
	leaq	.Lanon.cc33f088844213285801c3a94d9c0c3c.35(%rip), %rdx
	movq	%r15, %rdi
.LBB76_22:
	movq	%r13, %rsi
	callq	_ZN4core5slice5index24slice_end_index_len_fail17h4d49418eab3a986eE
	ud2
.Lfunc_end76:
	.size	_ZN4core3str7pattern11StrSearcher3new17h173f4a4d0136fbb8E, .Lfunc_end76-_ZN4core3str7pattern11StrSearcher3new17h173f4a4d0136fbb8E
	.cfi_endproc

	.section	.text._ZN4core3ops8function6FnOnce9call_once17h465f2b446b17ba1aE.llvm.2993377856497567720,"ax",@progbits
	.p2align	4, 0x90
	.type	_ZN4core3ops8function6FnOnce9call_once17h465f2b446b17ba1aE.llvm.2993377856497567720,@function
_ZN4core3ops8function6FnOnce9call_once17h465f2b446b17ba1aE.llvm.2993377856497567720:
	.cfi_startproc
	movq	(%rdi), %rax
	.p2align	4, 0x90
.LBB77_1:
	jmp	.LBB77_1
.Lfunc_end77:
	.size	_ZN4core3ops8function6FnOnce9call_once17h465f2b446b17ba1aE.llvm.2993377856497567720, .Lfunc_end77-_ZN4core3ops8function6FnOnce9call_once17h465f2b446b17ba1aE.llvm.2993377856497567720
	.cfi_endproc

	.section	".text._ZN57_$LT$core..fmt..Arguments$u20$as$u20$core..fmt..Debug$GT$3fmt17ha286a761a218d18fE","ax",@progbits
	.p2align	4, 0x90
	.type	_ZN57_$LT$core..fmt..Arguments$u20$as$u20$core..fmt..Debug$GT$3fmt17ha286a761a218d18fE,@function
_ZN57_$LT$core..fmt..Arguments$u20$as$u20$core..fmt..Debug$GT$3fmt17ha286a761a218d18fE:
	.cfi_startproc
	subq	$56, %rsp
	.cfi_def_cfa_offset 64
	movq	32(%rsi), %rax
	movq	40(%rsi), %rsi
	movups	(%rdi), %xmm0
	movups	16(%rdi), %xmm1
	movups	32(%rdi), %xmm2
	movaps	%xmm2, 32(%rsp)
	movaps	%xmm1, 16(%rsp)
	movaps	%xmm0, (%rsp)
	movq	%rsp, %rdx
	movq	%rax, %rdi
	callq	_ZN4core3fmt5write17h5f7d08b16a082aa3E
	addq	$56, %rsp
	.cfi_def_cfa_offset 8
	retq
.Lfunc_end78:
	.size	_ZN57_$LT$core..fmt..Arguments$u20$as$u20$core..fmt..Debug$GT$3fmt17ha286a761a218d18fE, .Lfunc_end78-_ZN57_$LT$core..fmt..Arguments$u20$as$u20$core..fmt..Debug$GT$3fmt17ha286a761a218d18fE
	.cfi_endproc

	.section	.text._ZN4core3fmt5write17h5f7d08b16a082aa3E,"ax",@progbits
	.p2align	4, 0x90
	.type	_ZN4core3fmt5write17h5f7d08b16a082aa3E,@function
_ZN4core3fmt5write17h5f7d08b16a082aa3E:
	.cfi_startproc
	pushq	%rbp
	.cfi_def_cfa_offset 16
	pushq	%r15
	.cfi_def_cfa_offset 24
	pushq	%r14
	.cfi_def_cfa_offset 32
	pushq	%r13
	.cfi_def_cfa_offset 40
	pushq	%r12
	.cfi_def_cfa_offset 48
	pushq	%rbx
	.cfi_def_cfa_offset 56
	subq	$88, %rsp
	.cfi_def_cfa_offset 144
	.cfi_offset %rbx, -56
	.cfi_offset %r12, -48
	.cfi_offset %r13, -40
	.cfi_offset %r14, -32
	.cfi_offset %r15, -24
	.cfi_offset %rbp, -16
	movq	%rdx, %rbx
	movq	%rsi, %rcx
	movabsq	$137438953472, %rax
	movq	%rax, 64(%rsp)
	movb	$3, 72(%rsp)
	movq	$0, 16(%rsp)
	movq	$0, 32(%rsp)
	movq	%rdi, 48(%rsp)
	movq	%rsi, 56(%rsp)
	movq	16(%rdx), %r15
	testq	%r15, %r15
	je	.LBB79_22
	imulq	$56, 24(%rbx), %rax
	movq	(%rbx), %r13
	movq	8(%rbx), %rsi
	shrq	$3, %rax
	movabsq	$2635249153387078803, %rdx
	mulq	%rdx
	movq	%rdx, %r12
	cmpq	%rsi, %rdx
	cmovaq	%rsi, %r12
	testq	%r12, %r12
	je	.LBB79_29
	movq	%rsi, 8(%rsp)
	movq	(%r13), %rsi
	movq	8(%r13), %rdx
	callq	*24(%rcx)
	testb	%al, %al
	jne	.LBB79_32
	movq	32(%rbx), %rbp
	movq	40(%rbx), %rax
	movq	%rax, (%rsp)
	movq	%r12, %rax
	shlq	$4, %rax
	movq	%rax, 80(%rsp)
	addq	$48, %r15
	xorl	%r14d, %r14d
	.p2align	4, 0x90
.LBB79_4:
	movl	-8(%r15), %eax
	movl	%eax, 68(%rsp)
	movzbl	(%r15), %eax
	movb	%al, 72(%rsp)
	movl	-4(%r15), %eax
	movl	%eax, 64(%rsp)
	movq	-24(%r15), %rax
	movq	-16(%r15), %rdi
	testq	%rax, %rax
	je	.LBB79_9
	cmpq	$2, %rax
	je	.LBB79_10
	cmpq	(%rsp), %rdi
	jae	.LBB79_36
	shlq	$4, %rdi
